///////////////////////////////////////////////////////////////////////////////
//                                                                            /
// IAR C/C++ Compiler V8.10.3.10338/W32 for 8051        23/Aug/2021  13:03:36 /
// Copyright 2004-2011 IAR Systems AB.                                        /
//                                                                            /
//    Core               =  plain                                             /
//    Code model         =  banked                                            /
//    Data model         =  large                                             /
//    Calling convention =  xdata reentrant                                   /
//    Constant location  =  data_rom                                          /
//    Dptr setup         =  1,16                                              /
//    Source file        =  D:\test_nb\ДњТы\ЖржеЖЫ\Projects\zstack\Samples\Ge /
//                          nericApp\Source\DHT11.C                           /
//    Command line       =  -f D:\test_nb\ДњТы\ЖржеЖЫ\Projects\zstack\Samples /
//                          \GenericApp\CC2530DB\..\..\..\Tools\CC2530DB\f8wR /
//                          outer.cfg (-DCPU32MHZ -DROOT=__near_func          /
//                          -DMAC_CFG_APP_PENDING_QUEUE=TRUE                  /
//                          -DMAC_CFG_TX_DATA_MAX=5 -DMAC_CFG_TX_MAX=8        /
//                          -DMAC_CFG_RX_MAX=5 -DRTR_NWK) -f                  /
//                          D:\test_nb\ДњТы\ЖржеЖЫ\Projects\zstack\Samples\Ge /
//                          nericApp\CC2530DB\..\..\..\Tools\CC2530DB\f8wConf /
//                          ig.cfg (-DZIGBEEPRO -DSECURE=0                    /
//                          -DZG_SECURE_DYNAMIC=0 -DREFLECTOR                 /
//                          -DDEFAULT_CHANLIST=0x00000800                     /
//                          -DZDAPP_CONFIG_PAN_ID=0xFFFF                      /
//                          -DNWK_START_DELAY=100 -DEXTENDED_JOINING_RANDOM_M /
//                          ASK=0x007F -DBEACON_REQUEST_DELAY=100             /
//                          -DBEACON_REQ_DELAY_MASK=0x00FF                    /
//                          -DLINK_STATUS_JITTER_MASK=0x007F                  /
//                          -DROUTE_EXPIRY_TIME=30 -DAPSC_ACK_WAIT_DURATION_P /
//                          OLLED=3000 -DNWK_INDIRECT_MSG_TIMEOUT=7           /
//                          -DMAX_RREQ_ENTRIES=8 -DAPSC_MAX_FRAME_RETRIES=3   /
//                          -DNWK_MAX_DATA_RETRIES=2                          /
//                          -DMAX_POLL_FAILURE_RETRIES=2 -DMAX_BCAST=9        /
//                          -DAPS_MAX_GROUPS=16 -DMAX_RTG_ENTRIES=40          /
//                          -DNWK_MAX_BINDING_ENTRIES=4                       /
//                          -DMAX_BINDING_CLUSTER_IDS=4                       /
//                          "-DDEFAULT_KEY={0x01, 0x03, 0x05, 0x07, 0x09,     /
//                          0x0B, 0x0D, 0x0F, 0x00, 0x02, 0x04, 0x06, 0x08,   /
//                          0x0A, 0x0C, 0x0D}" -DMAC_MAX_FRAME_SIZE=116       /
//                          -DZDNWKMGR_MIN_TRANSMISSIONS=20 "-DCONST=const    /
//                          __code" -DGENERIC=__generic                       /
//                          -DRFD_RCVC_ALWAYS_ON=FALSE -DPOLL_RATE=1000       /
//                          -DQUEUED_POLL_RATE=100 -DRESPONSE_POLL_RATE=100)  /
//                          -DREJOIN_POLL_RATE=440 D:\test_nb\ДњТы\ЖржеЖЫ\Pro /
//                          jects\zstack\Samples\GenericApp\Source\DHT11.C    /
//                          -D ZTOOL_P1 -D LCD_SUPPORTED=DEBUG -lC            /
//                          D:\test_nb\ДњТы\ЖржеЖЫ\Projects\zstack\Samples\Ge /
//                          nericApp\CC2530DB\RouterEB\List\ -lA              /
//                          D:\test_nb\ДњТы\ЖржеЖЫ\Projects\zstack\Samples\Ge /
//                          nericApp\CC2530DB\RouterEB\List\ --diag_suppress  /
//                          Pe001,Pa010 -o D:\test_nb\ДњТы\ЖржеЖЫ\Projects\zs /
//                          tack\Samples\GenericApp\CC2530DB\RouterEB\Obj\    /
//                          -e --no_code_motion --debug --core=plain          /
//                          --dptr=16,1 --data_model=large                    /
//                          --code_model=banked --calling_convention=xdata_re /
//                          entrant --place_constants=data_rom                /
//                          --nr_virtual_regs 16 -I                           /
//                          D:\test_nb\ДњТы\ЖржеЖЫ\Projects\zstack\Samples\Ge /
//                          nericApp\CC2530DB\ -I D:\test_nb\ДњТы\ЖржеЖЫ\Proj /
//                          ects\zstack\Samples\GenericApp\CC2530DB\..\Source /
//                          \ -I D:\test_nb\ДњТы\ЖржеЖЫ\Projects\zstack\Sampl /
//                          es\GenericApp\CC2530DB\..\..\..\ZMain\TI2530DB\   /
//                          -I D:\test_nb\ДњТы\ЖржеЖЫ\Projects\zstack\Samples /
//                          \GenericApp\CC2530DB\..\..\..\..\..\Components\ha /
//                          l\include\ -I D:\test_nb\ДњТы\ЖржеЖЫ\Projects\zst /
//                          ack\Samples\GenericApp\CC2530DB\..\..\..\..\..\Co /
//                          mponents\hal\target\CC2530EB\ -I                  /
//                          D:\test_nb\ДњТы\ЖржеЖЫ\Projects\zstack\Samples\Ge /
//                          nericApp\CC2530DB\..\..\..\..\..\Components\mac\i /
//                          nclude\ -I D:\test_nb\ДњТы\ЖржеЖЫ\Projects\zstack /
//                          \Samples\GenericApp\CC2530DB\..\..\..\..\..\Compo /
//                          nents\mac\high_level\ -I                          /
//                          D:\test_nb\ДњТы\ЖржеЖЫ\Projects\zstack\Samples\Ge /
//                          nericApp\CC2530DB\..\..\..\..\..\Components\mac\l /
//                          ow_level\srf04\ -I D:\test_nb\ДњТы\ЖржеЖЫ\Project /
//                          s\zstack\Samples\GenericApp\CC2530DB\..\..\..\..\ /
//                          ..\Components\mac\low_level\srf04\single_chip\    /
//                          -I D:\test_nb\ДњТы\ЖржеЖЫ\Projects\zstack\Samples /
//                          \GenericApp\CC2530DB\..\..\..\..\..\Components\mt /
//                          \ -I D:\test_nb\ДњТы\ЖржеЖЫ\Projects\zstack\Sampl /
//                          es\GenericApp\CC2530DB\..\..\..\..\..\Components\ /
//                          osal\include\ -I D:\test_nb\ДњТы\ЖржеЖЫ\Projects\ /
//                          zstack\Samples\GenericApp\CC2530DB\..\..\..\..\.. /
//                          \Components\services\saddr\ -I                    /
//                          D:\test_nb\ДњТы\ЖржеЖЫ\Projects\zstack\Samples\Ge /
//                          nericApp\CC2530DB\..\..\..\..\..\Components\servi /
//                          ces\sdata\ -I D:\test_nb\ДњТы\ЖржеЖЫ\Projects\zst /
//                          ack\Samples\GenericApp\CC2530DB\..\..\..\..\..\Co /
//                          mponents\stack\af\ -I D:\test_nb\ДњТы\ЖржеЖЫ\Proj /
//                          ects\zstack\Samples\GenericApp\CC2530DB\..\..\..\ /
//                          ..\..\Components\stack\nwk\ -I                    /
//                          D:\test_nb\ДњТы\ЖржеЖЫ\Projects\zstack\Samples\Ge /
//                          nericApp\CC2530DB\..\..\..\..\..\Components\stack /
//                          \sapi\ -I D:\test_nb\ДњТы\ЖржеЖЫ\Projects\zstack\ /
//                          Samples\GenericApp\CC2530DB\..\..\..\..\..\Compon /
//                          ents\stack\sec\ -I D:\test_nb\ДњТы\ЖржеЖЫ\Project /
//                          s\zstack\Samples\GenericApp\CC2530DB\..\..\..\..\ /
//                          ..\Components\stack\sys\ -I                       /
//                          D:\test_nb\ДњТы\ЖржеЖЫ\Projects\zstack\Samples\Ge /
//                          nericApp\CC2530DB\..\..\..\..\..\Components\stack /
//                          \zdo\ -I D:\test_nb\ДњТы\ЖржеЖЫ\Projects\zstack\S /
//                          amples\GenericApp\CC2530DB\..\..\..\..\..\Compone /
//                          nts\zmac\ -I D:\test_nb\ДњТы\ЖржеЖЫ\Projects\zsta /
//                          ck\Samples\GenericApp\CC2530DB\..\..\..\..\..\Com /
//                          ponents\zmac\f8w\ -Ohz --require_prototypes       /
//    List file          =  D:\test_nb\ДњТы\ЖржеЖЫ\Projects\zstack\Samples\Ge /
//                          nericApp\CC2530DB\RouterEB\List\DHT11.s51         /
//                                                                            /
//                                                                            /
///////////////////////////////////////////////////////////////////////////////

        NAME DHT11

        RTMODEL "__SystemLibrary", "CLib"
        RTMODEL "__calling_convention", "xdata_reentrant"
        RTMODEL "__code_model", "banked"
        RTMODEL "__core", "plain"
        RTMODEL "__data_model", "large"
        RTMODEL "__dptr_size", "16"
        RTMODEL "__extended_stack", "disabled"
        RTMODEL "__location_for_constants", "data"
        RTMODEL "__number_of_dptrs", "1"
        RTMODEL "__rt_version", "1"

        RSEG DOVERLAY:DATA:NOROOT(0)
        RSEG IOVERLAY:IDATA:NOROOT(0)
        RSEG ISTACK:IDATA:NOROOT(0)
        RSEG PSTACK:XDATA:NOROOT(0)
        RSEG XSTACK:XDATA:NOROOT(0)

        EXTERN ?BANKED_ENTER_XDATA
        EXTERN ?BANKED_LEAVE_XDATA
        EXTERN ?BDISPATCH
        EXTERN ?BRET
        EXTERN __INIT_XDATA_I
        EXTERN __INIT_XDATA_Z

        PUBLIC ??COM?relay
        FUNCTION ??COM?relay,0203H
        PUBLIC ??DHT11_TEST?relay
        FUNCTION ??DHT11_TEST?relay,0203H
        PUBLIC COM
        FUNCTION COM,021203H
        ARGFRAME XSTACK, 0, STACK
        ARGFRAME IOVERLAY, 0, STATIC
        ARGFRAME DOVERLAY, 0, STATIC
        LOCFRAME ISTACK, 2, STACK
        LOCFRAME XSTACK, 9, STACK
        PUBLIC DHT11_TEST
        FUNCTION DHT11_TEST,021203H
        ARGFRAME XSTACK, 0, STACK
        LOCFRAME ISTACK, 8, STACK
        PUBWEAK P0DIR
        PUBWEAK _A_P0
        PUBLIC shidu_ge
        PUBLIC shidu_shi
        PUBLIC ucharFLAG
        PUBLIC ucharRH_data_H
        PUBLIC ucharRH_data_H_temp
        PUBLIC ucharRH_data_L
        PUBLIC ucharRH_data_L_temp
        PUBLIC ucharT_data_H
        PUBLIC ucharT_data_H_temp
        PUBLIC ucharT_data_L
        PUBLIC ucharT_data_L_temp
        PUBLIC ucharcheckdata
        PUBLIC ucharcheckdata_temp
        PUBLIC ucharcomdata
        PUBLIC uchartemp
        PUBLIC wendu_ge
        PUBLIC wendu_shi
        
        CFI Names cfiNames0
        CFI StackFrame CFA_SP SP IDATA
        CFI StackFrame CFA_PSP16 PSP16 XDATA
        CFI StackFrame CFA_XSP16 XSP16 XDATA
        CFI StaticOverlayFrame CFA_IOVERLAY IOVERLAY
        CFI StaticOverlayFrame CFA_DOVERLAY DOVERLAY
        CFI Resource `PSW.CY`:1, `B.BR0`:1, `B.BR1`:1, `B.BR2`:1, `B.BR3`:1
        CFI Resource `B.BR4`:1, `B.BR5`:1, `B.BR6`:1, `B.BR7`:1, `VB.BR8`:1
        CFI Resource `VB.BR9`:1, `VB.BR10`:1, `VB.BR11`:1, `VB.BR12`:1
        CFI Resource `VB.BR13`:1, `VB.BR14`:1, `VB.BR15`:1, VB:8, B:8, A:8
        CFI Resource PSW:8, DPL0:8, DPH0:8, R0:8, R1:8, R2:8, R3:8, R4:8, R5:8
        CFI Resource R6:8, R7:8, V0:8, V1:8, V2:8, V3:8, V4:8, V5:8, V6:8, V7:8
        CFI Resource V8:8, V9:8, V10:8, V11:8, V12:8, V13:8, V14:8, V15:8, SP:8
        CFI Resource PSPH:8, PSPL:8, PSP16:16, XSPH:8, XSPL:8, XSP16:16
        CFI VirtualResource ?RET:24
        CFI Resource ?BRET_EXT:8
        CFI VirtualResource ?RET_HIGH:8, ?RET_LOW:8
        CFI ResourceParts PSP16 PSPH, PSPL
        CFI ResourceParts XSP16 XSPH, XSPL
        CFI ResourceParts ?RET ?BRET_EXT, ?RET_HIGH, ?RET_LOW
        CFI EndNames cfiNames0
        
        CFI Common cfiCommon0 Using cfiNames0
        CFI CodeAlign 1
        CFI DataAlign -1
        CFI ReturnAddress ?RET CODE
        CFI CFA_DOVERLAY Used
        CFI CFA_IOVERLAY Used
        CFI CFA_SP SP+-3
        CFI CFA_PSP16 PSP16+0
        CFI CFA_XSP16 XSP16+0
        CFI `PSW.CY` SameValue
        CFI `B.BR0` SameValue
        CFI `B.BR1` SameValue
        CFI `B.BR2` SameValue
        CFI `B.BR3` SameValue
        CFI `B.BR4` SameValue
        CFI `B.BR5` SameValue
        CFI `B.BR6` SameValue
        CFI `B.BR7` SameValue
        CFI `VB.BR8` SameValue
        CFI `VB.BR9` SameValue
        CFI `VB.BR10` SameValue
        CFI `VB.BR11` SameValue
        CFI `VB.BR12` SameValue
        CFI `VB.BR13` SameValue
        CFI `VB.BR14` SameValue
        CFI `VB.BR15` SameValue
        CFI VB SameValue
        CFI B Undefined
        CFI A Undefined
        CFI PSW SameValue
        CFI DPL0 SameValue
        CFI DPH0 SameValue
        CFI R0 Undefined
        CFI R1 Undefined
        CFI R2 Undefined
        CFI R3 Undefined
        CFI R4 Undefined
        CFI R5 Undefined
        CFI R6 SameValue
        CFI R7 SameValue
        CFI V0 SameValue
        CFI V1 SameValue
        CFI V2 SameValue
        CFI V3 SameValue
        CFI V4 SameValue
        CFI V5 SameValue
        CFI V6 SameValue
        CFI V7 SameValue
        CFI V8 SameValue
        CFI V9 SameValue
        CFI V10 SameValue
        CFI V11 SameValue
        CFI V12 SameValue
        CFI V13 SameValue
        CFI V14 SameValue
        CFI V15 SameValue
        CFI PSPH Undefined
        CFI PSPL Undefined
        CFI XSPH Undefined
        CFI XSPL Undefined
        CFI ?RET Concat
        CFI ?BRET_EXT Frame(CFA_SP, 3)
        CFI ?RET_HIGH Frame(CFA_SP, 2)
        CFI ?RET_LOW Frame(CFA_SP, 1)
        CFI EndCommon cfiCommon0
        
        
        CFI Common cfiCommon1 Using cfiNames0
        CFI CodeAlign 1
        CFI DataAlign -1
        CFI ReturnAddress ?RET CODE
        CFI CFA_DOVERLAY Used
        CFI CFA_IOVERLAY Used
        CFI CFA_SP SP+-2
        CFI CFA_PSP16 PSP16+0
        CFI CFA_XSP16 XSP16+0
        CFI `PSW.CY` SameValue
        CFI `B.BR0` SameValue
        CFI `B.BR1` SameValue
        CFI `B.BR2` SameValue
        CFI `B.BR3` SameValue
        CFI `B.BR4` SameValue
        CFI `B.BR5` SameValue
        CFI `B.BR6` SameValue
        CFI `B.BR7` SameValue
        CFI `VB.BR8` SameValue
        CFI `VB.BR9` SameValue
        CFI `VB.BR10` SameValue
        CFI `VB.BR11` SameValue
        CFI `VB.BR12` SameValue
        CFI `VB.BR13` SameValue
        CFI `VB.BR14` SameValue
        CFI `VB.BR15` SameValue
        CFI VB SameValue
        CFI B SameValue
        CFI A SameValue
        CFI PSW SameValue
        CFI DPL0 SameValue
        CFI DPH0 SameValue
        CFI R0 SameValue
        CFI R1 SameValue
        CFI R2 SameValue
        CFI R3 SameValue
        CFI R4 SameValue
        CFI R5 SameValue
        CFI R6 SameValue
        CFI R7 SameValue
        CFI V0 SameValue
        CFI V1 SameValue
        CFI V2 SameValue
        CFI V3 SameValue
        CFI V4 SameValue
        CFI V5 SameValue
        CFI V6 SameValue
        CFI V7 SameValue
        CFI V8 SameValue
        CFI V9 SameValue
        CFI V10 SameValue
        CFI V11 SameValue
        CFI V12 SameValue
        CFI V13 SameValue
        CFI V14 SameValue
        CFI V15 SameValue
        CFI PSPH Undefined
        CFI PSPL Undefined
        CFI XSPH Undefined
        CFI XSPL Undefined
        CFI ?RET Concat
        CFI ?BRET_EXT SameValue
        CFI ?RET_HIGH Frame(CFA_SP, 2)
        CFI ?RET_LOW Frame(CFA_SP, 1)
        CFI EndCommon cfiCommon1
        
Delay_10us          SYMBOL "Delay_10us"
Delay_ms            SYMBOL "Delay_ms"
??Delay_10us?relay  SYMBOL "?relay", Delay_10us
??Delay_ms?relay    SYMBOL "?relay", Delay_ms
COM                 SYMBOL "COM"
??COM?relay         SYMBOL "?relay", COM
DHT11_TEST          SYMBOL "DHT11_TEST"
??DHT11_TEST?relay  SYMBOL "?relay", DHT11_TEST

        EXTERN Delay_10us
        FUNCTION Delay_10us,0202H
        ARGFRAME ISTACK, 2, STACK
        ARGFRAME PSTACK, 0, STACK
        ARGFRAME XSTACK, 9, STACK
        ARGFRAME IOVERLAY, 0, STATIC
        ARGFRAME DOVERLAY, 0, STATIC
        EXTERN Delay_ms
        FUNCTION Delay_ms,0202H
        ARGFRAME ISTACK, 2, STACK
        ARGFRAME PSTACK, 0, STACK
        ARGFRAME XSTACK, 0, STACK
        ARGFRAME IOVERLAY, 0, STATIC
        ARGFRAME DOVERLAY, 0, STATIC
        EXTERN ??Delay_10us?relay
        FUNCTION ??Delay_10us?relay,00H
        EXTERN ??Delay_ms?relay
        FUNCTION ??Delay_ms?relay,00H

// D:\test_nb\ДњТы\ЖржеЖЫ\Projects\zstack\Samples\GenericApp\Source\DHT11.C
//    1 
//    2 #include <ioCC2530.h>

        ASEGN SFR_AN:DATA:NOROOT,080H
// union <unnamed> volatile __sfr _A_P0
_A_P0:
        DATA8
        DS 1

        ASEGN SFR_AN:DATA:NOROOT,0fdH
// unsigned char volatile __sfr P0DIR
P0DIR:
        DATA8
        DS 1
//    3 #include "OnBoard.h"
//    4 #include "delay.h"
//    5 #define uint unsigned int
//    6 #define uchar unsigned char
//    7 
//    8 #define  DATA_PIN P0_7
//    9 
//   10 /*******КЏЪ§ЩљУї*********/
//   11 void Delay_us(void); //1 usбгЪБ
//   12 void Delay_10us(void); //10 usбгЪБ
//   13 void Delay_ms(uint Time);//n msбгЪБ
//   14 void COM(void);	// ЮТЪЊаДШы
//   15 void DHT11_TEST(void) ;  //ЮТЪЊДЋИаЦєЖЏ
//   16 
//   17 
//   18 //ЮТЪЊЖШЖЈвх

        RSEG XDATA_Z:XDATA:NOROOT(0)
        DATA8
//   19 uchar ucharFLAG,uchartemp;
ucharFLAG:
        DS 1
        REQUIRE __INIT_XDATA_Z

        RSEG XDATA_Z:XDATA:NOROOT(0)
        DATA8
uchartemp:
        DS 1
        REQUIRE __INIT_XDATA_Z

        RSEG XDATA_Z:XDATA:NOROOT(0)
        DATA8
//   20 uchar shidu_shi,shidu_ge,wendu_shi,wendu_ge=4;
shidu_shi:
        DS 1
        REQUIRE __INIT_XDATA_Z

        RSEG XDATA_Z:XDATA:NOROOT(0)
        DATA8
shidu_ge:
        DS 1
        REQUIRE __INIT_XDATA_Z

        RSEG XDATA_Z:XDATA:NOROOT(0)
        DATA8
wendu_shi:
        DS 1
        REQUIRE __INIT_XDATA_Z

        RSEG XDATA_I:XDATA:NOROOT(0)
wendu_ge:
        DATA8
        DS 1
        REQUIRE `?<Initializer for wendu_ge>`
        REQUIRE __INIT_XDATA_I

        RSEG XDATA_Z:XDATA:NOROOT(0)
        DATA8
//   21 uchar ucharT_data_H,ucharT_data_L,ucharRH_data_H,ucharRH_data_L,ucharcheckdata;
ucharT_data_H:
        DS 1
        REQUIRE __INIT_XDATA_Z

        RSEG XDATA_Z:XDATA:NOROOT(0)
        DATA8
ucharT_data_L:
        DS 1
        REQUIRE __INIT_XDATA_Z

        RSEG XDATA_Z:XDATA:NOROOT(0)
        DATA8
ucharRH_data_H:
        DS 1
        REQUIRE __INIT_XDATA_Z

        RSEG XDATA_Z:XDATA:NOROOT(0)
        DATA8
ucharRH_data_L:
        DS 1
        REQUIRE __INIT_XDATA_Z

        RSEG XDATA_Z:XDATA:NOROOT(0)
        DATA8
ucharcheckdata:
        DS 1
        REQUIRE __INIT_XDATA_Z

        RSEG XDATA_Z:XDATA:NOROOT(0)
        DATA8
//   22 uchar ucharT_data_H_temp,ucharT_data_L_temp,ucharRH_data_H_temp,ucharRH_data_L_temp,ucharcheckdata_temp;
ucharT_data_H_temp:
        DS 1
        REQUIRE __INIT_XDATA_Z

        RSEG XDATA_Z:XDATA:NOROOT(0)
        DATA8
ucharT_data_L_temp:
        DS 1
        REQUIRE __INIT_XDATA_Z

        RSEG XDATA_Z:XDATA:NOROOT(0)
        DATA8
ucharRH_data_H_temp:
        DS 1
        REQUIRE __INIT_XDATA_Z

        RSEG XDATA_Z:XDATA:NOROOT(0)
        DATA8
ucharRH_data_L_temp:
        DS 1
        REQUIRE __INIT_XDATA_Z

        RSEG XDATA_Z:XDATA:NOROOT(0)
        DATA8
ucharcheckdata_temp:
        DS 1
        REQUIRE __INIT_XDATA_Z

        RSEG XDATA_Z:XDATA:NOROOT(0)
        DATA8
//   23 uchar ucharcomdata;
ucharcomdata:
        DS 1
        REQUIRE __INIT_XDATA_Z
//   24 
//   25 
//   26 
//   27 /***********************
//   28    ЮТЪЊЖШДЋИа
//   29 ***********************/

        RSEG BANKED_CODE:CODE:NOROOT(0)
//   30 void COM(void)	// ЮТЪЊаДШы
COM:
        CFI Block cfiBlock0 Using cfiCommon0
        CFI Function COM
        CODE
//   31 {     
        FUNCALL COM, Delay_10us
        LOCFRAME ISTACK, 0, STACK
        LOCFRAME PSTACK, 0, STACK
        LOCFRAME XSTACK, 9, STACK
        LOCFRAME IOVERLAY, 0, STATIC
        LOCFRAME DOVERLAY, 0, STATIC
        ARGFRAME ISTACK, 0, STACK
        ARGFRAME PSTACK, 0, STACK
        ARGFRAME XSTACK, 9, STACK
        ARGFRAME IOVERLAY, 0, STATIC
        ARGFRAME DOVERLAY, 0, STATIC
        FUNCALL COM, Delay_10us
        LOCFRAME ISTACK, 0, STACK
        LOCFRAME PSTACK, 0, STACK
        LOCFRAME XSTACK, 9, STACK
        LOCFRAME IOVERLAY, 0, STATIC
        LOCFRAME DOVERLAY, 0, STATIC
        ARGFRAME ISTACK, 0, STACK
        ARGFRAME PSTACK, 0, STACK
        ARGFRAME XSTACK, 9, STACK
        ARGFRAME IOVERLAY, 0, STATIC
        ARGFRAME DOVERLAY, 0, STATIC
        FUNCALL COM, Delay_10us
        LOCFRAME ISTACK, 0, STACK
        LOCFRAME PSTACK, 0, STACK
        LOCFRAME XSTACK, 9, STACK
        LOCFRAME IOVERLAY, 0, STATIC
        LOCFRAME DOVERLAY, 0, STATIC
        ARGFRAME ISTACK, 0, STACK
        ARGFRAME PSTACK, 0, STACK
        ARGFRAME XSTACK, 9, STACK
        ARGFRAME IOVERLAY, 0, STATIC
        ARGFRAME DOVERLAY, 0, STATIC
        MOV     A,#-0x9
        LCALL   ?BANKED_ENTER_XDATA
        CFI DPH0 load(1, XDATA, add(CFA_XSP16, literal(-1)))
        CFI DPL0 load(1, XDATA, add(CFA_XSP16, literal(-2)))
        CFI ?BRET_EXT load(1, XDATA, add(CFA_XSP16, literal(-3)))
        CFI ?RET_HIGH load(1, XDATA, add(CFA_XSP16, literal(-4)))
        CFI ?RET_LOW load(1, XDATA, add(CFA_XSP16, literal(-5)))
        CFI R7 load(1, XDATA, add(CFA_XSP16, literal(-6)))
        CFI V0 load(1, XDATA, add(CFA_XSP16, literal(-7)))
        CFI VB load(1, XDATA, add(CFA_XSP16, literal(-8)))
        CFI R6 load(1, XDATA, add(CFA_XSP16, literal(-9)))
        CFI CFA_SP SP+0
        CFI CFA_XSP16 add(XSP16, 9)
        ; Saved register size: 9
        ; Auto size: 0
//   32     uchar i;         
//   33     for(i=0;i<8;i++)    
        MOV     R6,#0x8
//   34     {
//   35      ucharFLAG=2; 
??COM_0:
        MOV     DPTR,#ucharFLAG
        MOV     A,#0x2
        MOVX    @DPTR,A
//   36      while((!DATA_PIN)&&ucharFLAG++);
??COM_1:
        MOV     C,0x80.7
        JC      ??COM_2
        LCALL   ?Subroutine1 & 0xFFFF
??CrossCallReturnLabel_0:
        JNZ     ??COM_1
//   37      Delay_10us();
??COM_2:
        ; Setup parameters for call to function Delay_10us
        LCALL   ?Subroutine2 & 0xFFFF
//   38      Delay_10us();
//   39      Delay_10us();
//   40      uchartemp=0;
??CrossCallReturnLabel_4:
        MOV     DPTR,#uchartemp
        CLR     A
        MOVX    @DPTR,A
//   41      if(DATA_PIN)uchartemp=1;
        MOV     C,0x80.7
        JNC     ??COM_3
        INC     A
        MOVX    @DPTR,A
//   42      ucharFLAG=2;
??COM_3:
        MOV     DPTR,#ucharFLAG
        MOV     A,#0x2
        MOVX    @DPTR,A
//   43      while((DATA_PIN)&&ucharFLAG++);   
??COM_4:
        MOV     C,0x80.7
        JNC     ??COM_5
        LCALL   ?Subroutine1 & 0xFFFF
??CrossCallReturnLabel_1:
        JNZ     ??COM_4
//   44      if(ucharFLAG==1)break;    
??COM_5:
        MOVX    A,@DPTR
        XRL     A,#0x1
        JZ      ??COM_6
//   45      ucharcomdata<<=1;
//   46      ucharcomdata|=uchartemp; 
        MOV     DPTR,#uchartemp
        PUSH    DPL
        CFI CFA_SP SP+-1
        MOV     DPTR,#ucharcomdata
        MOVX    A,@DPTR
        CLR     C
        RLC     A
        MOV     DPH,#(uchartemp >> 8) & 0xff
        POP     DPL
        CFI CFA_SP SP+0
        MOV     R0,A
        MOVX    A,@DPTR
        ORL     A,R0
        MOV     DPTR,#ucharcomdata
        MOVX    @DPTR,A
//   47      }    
        DEC     R6
        MOV     A,R6
        JNZ     ??COM_0
//   48 }
??COM_6:
        MOV     R7,#0x1
        LJMP    ?BANKED_LEAVE_XDATA
        CFI EndBlock cfiBlock0
        REQUIRE _A_P0
//   49 

        RSEG BANKED_CODE:CODE:NOROOT(0)
//   50 void DHT11_TEST(void)   //ЮТЪЊДЋИаЦєЖЏ
DHT11_TEST:
        CFI Block cfiBlock1 Using cfiCommon0
        CFI Function DHT11_TEST
        CODE
//   51 {
        FUNCALL DHT11_TEST, Delay_ms
        LOCFRAME ISTACK, 2, STACK
        LOCFRAME PSTACK, 0, STACK
        LOCFRAME XSTACK, 0, STACK
        LOCFRAME IOVERLAY, 0, STATIC
        LOCFRAME DOVERLAY, 0, STATIC
        ARGFRAME ISTACK, 2, STACK
        ARGFRAME PSTACK, 0, STACK
        ARGFRAME XSTACK, 0, STACK
        ARGFRAME IOVERLAY, 0, STATIC
        ARGFRAME DOVERLAY, 0, STATIC
        FUNCALL DHT11_TEST, Delay_10us
        LOCFRAME ISTACK, 2, STACK
        LOCFRAME PSTACK, 0, STACK
        LOCFRAME XSTACK, 0, STACK
        LOCFRAME IOVERLAY, 0, STATIC
        LOCFRAME DOVERLAY, 0, STATIC
        ARGFRAME ISTACK, 2, STACK
        ARGFRAME PSTACK, 0, STACK
        ARGFRAME XSTACK, 0, STACK
        ARGFRAME IOVERLAY, 0, STATIC
        ARGFRAME DOVERLAY, 0, STATIC
        FUNCALL DHT11_TEST, Delay_10us
        LOCFRAME ISTACK, 2, STACK
        LOCFRAME PSTACK, 0, STACK
        LOCFRAME XSTACK, 0, STACK
        LOCFRAME IOVERLAY, 0, STATIC
        LOCFRAME DOVERLAY, 0, STATIC
        ARGFRAME ISTACK, 2, STACK
        ARGFRAME PSTACK, 0, STACK
        ARGFRAME XSTACK, 0, STACK
        ARGFRAME IOVERLAY, 0, STATIC
        ARGFRAME DOVERLAY, 0, STATIC
        FUNCALL DHT11_TEST, Delay_10us
        LOCFRAME ISTACK, 2, STACK
        LOCFRAME PSTACK, 0, STACK
        LOCFRAME XSTACK, 0, STACK
        LOCFRAME IOVERLAY, 0, STATIC
        LOCFRAME DOVERLAY, 0, STATIC
        ARGFRAME ISTACK, 2, STACK
        ARGFRAME PSTACK, 0, STACK
        ARGFRAME XSTACK, 0, STACK
        ARGFRAME IOVERLAY, 0, STATIC
        ARGFRAME DOVERLAY, 0, STATIC
        FUNCALL DHT11_TEST, Delay_10us
        LOCFRAME ISTACK, 2, STACK
        LOCFRAME PSTACK, 0, STACK
        LOCFRAME XSTACK, 0, STACK
        LOCFRAME IOVERLAY, 0, STATIC
        LOCFRAME DOVERLAY, 0, STATIC
        ARGFRAME ISTACK, 2, STACK
        ARGFRAME PSTACK, 0, STACK
        ARGFRAME XSTACK, 0, STACK
        ARGFRAME IOVERLAY, 0, STATIC
        ARGFRAME DOVERLAY, 0, STATIC
        FUNCALL DHT11_TEST, COM
        LOCFRAME ISTACK, 2, STACK
        LOCFRAME PSTACK, 0, STACK
        LOCFRAME XSTACK, 0, STACK
        LOCFRAME IOVERLAY, 0, STATIC
        LOCFRAME DOVERLAY, 0, STATIC
        ARGFRAME ISTACK, 2, STACK
        ARGFRAME PSTACK, 0, STACK
        ARGFRAME XSTACK, 0, STACK
        ARGFRAME IOVERLAY, 0, STATIC
        ARGFRAME DOVERLAY, 0, STATIC
        FUNCALL DHT11_TEST, COM
        LOCFRAME ISTACK, 2, STACK
        LOCFRAME PSTACK, 0, STACK
        LOCFRAME XSTACK, 0, STACK
        LOCFRAME IOVERLAY, 0, STATIC
        LOCFRAME DOVERLAY, 0, STATIC
        ARGFRAME ISTACK, 2, STACK
        ARGFRAME PSTACK, 0, STACK
        ARGFRAME XSTACK, 0, STACK
        ARGFRAME IOVERLAY, 0, STATIC
        ARGFRAME DOVERLAY, 0, STATIC
        FUNCALL DHT11_TEST, COM
        LOCFRAME ISTACK, 2, STACK
        LOCFRAME PSTACK, 0, STACK
        LOCFRAME XSTACK, 0, STACK
        LOCFRAME IOVERLAY, 0, STATIC
        LOCFRAME DOVERLAY, 0, STATIC
        ARGFRAME ISTACK, 2, STACK
        ARGFRAME PSTACK, 0, STACK
        ARGFRAME XSTACK, 0, STACK
        ARGFRAME IOVERLAY, 0, STATIC
        ARGFRAME DOVERLAY, 0, STATIC
        FUNCALL DHT11_TEST, COM
        LOCFRAME ISTACK, 2, STACK
        LOCFRAME PSTACK, 0, STACK
        LOCFRAME XSTACK, 0, STACK
        LOCFRAME IOVERLAY, 0, STATIC
        LOCFRAME DOVERLAY, 0, STATIC
        ARGFRAME ISTACK, 2, STACK
        ARGFRAME PSTACK, 0, STACK
        ARGFRAME XSTACK, 0, STACK
        ARGFRAME IOVERLAY, 0, STATIC
        ARGFRAME DOVERLAY, 0, STATIC
        FUNCALL DHT11_TEST, COM
        LOCFRAME ISTACK, 2, STACK
        LOCFRAME PSTACK, 0, STACK
        LOCFRAME XSTACK, 0, STACK
        LOCFRAME IOVERLAY, 0, STATIC
        LOCFRAME DOVERLAY, 0, STATIC
        ARGFRAME ISTACK, 2, STACK
        ARGFRAME PSTACK, 0, STACK
        ARGFRAME XSTACK, 0, STACK
        ARGFRAME IOVERLAY, 0, STATIC
        ARGFRAME DOVERLAY, 0, STATIC
        PUSH    DPL
        CFI DPL0 Frame(CFA_SP, 4)
        CFI CFA_SP SP+-4
        PUSH    DPH
        CFI DPH0 Frame(CFA_SP, 5)
        CFI CFA_SP SP+-5
        ; Saved register size: 2
        ; Auto size: 0
//   52     DATA_PIN=0;
        CLR     0x80.7
//   53     Delay_ms(19);  //>18MS
        ; Setup parameters for call to function Delay_ms
        MOV     R2,#0x13
        MOV     R3,#0x0
        LCALL   ??Delay_ms?relay
//   54     DATA_PIN=1; 
        SETB    0x80.7
//   55     P0DIR &= ~0x80; //жиаТХфжУIOПкЗНЯђ
        ANL     0xfd,#0x7f
//   56     Delay_10us();
        ; Setup parameters for call to function Delay_10us
        LCALL   ?Subroutine2 & 0xFFFF
//   57     Delay_10us();						
//   58     Delay_10us();
//   59     Delay_10us();  
??CrossCallReturnLabel_5:
        ; Setup parameters for call to function Delay_10us
        LCALL   ??Delay_10us?relay
//   60      if(!DATA_PIN) 
        MOV     C,0x80.7
        JNC     $+5
        LJMP    ??DHT11_TEST_0 & 0xFFFF
//   61      {
//   62       ucharFLAG=2; 
        MOV     DPTR,#ucharFLAG
        MOV     A,#0x2
        MOVX    @DPTR,A
//   63       while((!DATA_PIN)&&ucharFLAG++);
??DHT11_TEST_1:
        MOV     C,0x80.7
        JC      ??DHT11_TEST_2
        LCALL   ?Subroutine1 & 0xFFFF
??CrossCallReturnLabel_2:
        JNZ     ??DHT11_TEST_1
//   64       ucharFLAG=2;
??DHT11_TEST_2:
        MOV     A,#0x2
        MOVX    @DPTR,A
//   65       while((DATA_PIN)&&ucharFLAG++); 
??DHT11_TEST_3:
        MOV     C,0x80.7
        JNC     ??DHT11_TEST_4
        LCALL   ?Subroutine1 & 0xFFFF
??CrossCallReturnLabel_3:
        JNZ     ??DHT11_TEST_3
//   66       COM();
??DHT11_TEST_4:
        ; Setup parameters for call to function COM
        LCALL   ??Subroutine3_0 & 0xFFFF
//   67       ucharRH_data_H_temp=ucharcomdata;
??CrossCallReturnLabel_10:
        MOV     DPTR,#ucharRH_data_H_temp
        LCALL   ?Subroutine0 & 0xFFFF
//   68       COM();
//   69       ucharRH_data_L_temp=ucharcomdata;
??CrossCallReturnLabel_6:
        MOV     DPTR,#ucharRH_data_L_temp
        LCALL   ?Subroutine0 & 0xFFFF
//   70       COM();
//   71       ucharT_data_H_temp=ucharcomdata;
??CrossCallReturnLabel_7:
        MOV     DPTR,#ucharT_data_H_temp
        LCALL   ?Subroutine0 & 0xFFFF
//   72       COM();
//   73       ucharT_data_L_temp=ucharcomdata;
??CrossCallReturnLabel_8:
        MOV     DPTR,#ucharT_data_L_temp
        LCALL   ?Subroutine0 & 0xFFFF
//   74       COM();
//   75       ucharcheckdata_temp=ucharcomdata;
??CrossCallReturnLabel_9:
        MOV     DPTR,#ucharcheckdata_temp
        MOVX    @DPTR,A
//   76       DATA_PIN=1; 
        SETB    0x80.7
//   77       uchartemp=(ucharT_data_H_temp+ucharT_data_L_temp+ucharRH_data_H_temp+ucharRH_data_L_temp);
        MOV     DPTR,#ucharRH_data_L_temp
        PUSH    DPL
        CFI CFA_SP SP+-6
        PUSH    DPH
        CFI CFA_SP SP+-7
        MOV     DPTR,#ucharRH_data_H_temp
        PUSH    DPL
        CFI CFA_SP SP+-8
        PUSH    DPH
        CFI CFA_SP SP+-9
        MOV     DPTR,#ucharT_data_L_temp
        PUSH    DPL
        CFI CFA_SP SP+-10
        MOV     DPTR,#ucharT_data_H_temp
        MOVX    A,@DPTR
        MOV     DPH,#(ucharT_data_L_temp >> 8) & 0xff
        POP     DPL
        CFI CFA_SP SP+-9
        MOV     R0,A
        MOVX    A,@DPTR
        ADD     A,R0
        POP     DPH
        CFI CFA_SP SP+-8
        POP     DPL
        CFI CFA_SP SP+-7
        MOV     R0,A
        MOVX    A,@DPTR
        ADD     A,R0
        POP     DPH
        CFI CFA_SP SP+-6
        POP     DPL
        CFI CFA_SP SP+-5
        MOV     R0,A
        MOVX    A,@DPTR
        ADD     A,R0
        MOV     DPTR,#uchartemp
        MOVX    @DPTR,A
//   78        if(uchartemp==ucharcheckdata_temp)
        MOV     R0,A
        MOV     DPTR,#ucharcheckdata_temp
        MOVX    A,@DPTR
        XRL     A,R0
        JNZ     ??DHT11_TEST_5
//   79       {
//   80           ucharRH_data_H=ucharRH_data_H_temp;
        MOV     DPTR,#ucharRH_data_H_temp
        MOVX    A,@DPTR
        MOV     DPTR,#ucharRH_data_H
        MOVX    @DPTR,A
//   81           ucharRH_data_L=ucharRH_data_L_temp;
        MOV     DPTR,#ucharRH_data_L_temp
        MOVX    A,@DPTR
        MOV     DPTR,#ucharRH_data_L
        MOVX    @DPTR,A
//   82           ucharT_data_H=ucharT_data_H_temp;
        MOV     DPTR,#ucharT_data_H_temp
        MOVX    A,@DPTR
        MOV     DPTR,#ucharT_data_H
        MOVX    @DPTR,A
//   83           ucharT_data_L=ucharT_data_L_temp;
        MOV     DPTR,#ucharT_data_L_temp
        MOVX    A,@DPTR
        MOV     DPTR,#ucharT_data_L
        MOVX    @DPTR,A
//   84           ucharcheckdata=ucharcheckdata_temp;
        MOV     DPTR,#ucharcheckdata_temp
        MOVX    A,@DPTR
        MOV     DPTR,#ucharcheckdata
        MOVX    @DPTR,A
//   85        }
//   86          wendu_shi=ucharT_data_H/10; 
??DHT11_TEST_5:
        MOV     B,#0xa
        MOV     DPTR,#ucharT_data_H
        MOVX    A,@DPTR
        DIV     AB
        MOV     DPTR,#wendu_shi
        MOVX    @DPTR,A
//   87          wendu_ge=ucharT_data_H%10;
        MOV     DPTR,#ucharT_data_H
        MOVX    A,@DPTR
        MOV     B,#0xa
        DIV     AB
        MOV     A,B
        MOV     DPTR,#wendu_ge
        MOVX    @DPTR,A
//   88 	 
//   89          shidu_shi=ucharRH_data_H/10; 
        MOV     B,#0xa
        MOV     DPTR,#ucharRH_data_H
        MOVX    A,@DPTR
        DIV     AB
        MOV     DPTR,#shidu_shi
        MOVX    @DPTR,A
//   90          shidu_ge=ucharRH_data_H%10;        
        MOV     DPTR,#ucharRH_data_H
        MOVX    A,@DPTR
        MOV     B,#0xa
        DIV     AB
        MOV     A,B
        MOV     DPTR,#shidu_ge
        SJMP    ??DHT11_TEST_6
//   91     } 
//   92     else //УЛгУГЩЙІЖСШЁЃЌЗЕЛи0
//   93     {
//   94          wendu_shi=0; 
??DHT11_TEST_0:
        MOV     DPTR,#wendu_shi
        CLR     A
        MOVX    @DPTR,A
//   95          wendu_ge=1;
        MOV     DPTR,#wendu_ge
        INC     A
        MOVX    @DPTR,A
//   96 	 
//   97          shidu_shi=0; 
        MOV     DPTR,#shidu_shi
        CLR     A
        MOVX    @DPTR,A
//   98          shidu_ge=1;  
        MOV     DPTR,#shidu_ge
        INC     A
??DHT11_TEST_6:
        MOVX    @DPTR,A
//   99     } 
//  100     
//  101      P0DIR |= 0x80; //IOПкашвЊжиаТХфжУ 
        ORL     0xfd,#0x80
//  102 }
        POP     DPH
        CFI DPH0 SameValue
        CFI CFA_SP SP+-4
        POP     DPL
        CFI DPL0 SameValue
        CFI CFA_SP SP+-3
        LJMP    ?BRET
        CFI EndBlock cfiBlock1
        REQUIRE _A_P0
        REQUIRE P0DIR

        RSEG BANKED_CODE:CODE:NOROOT(0)
?Subroutine2:
        CFI Block cfiCond2 Using cfiCommon0
        CFI NoFunction
        CFI Conditional ??CrossCallReturnLabel_4
        CFI R6 load(1, XDATA, add(CFA_XSP16, literal(-9)))
        CFI VB load(1, XDATA, add(CFA_XSP16, literal(-8)))
        CFI V0 load(1, XDATA, add(CFA_XSP16, literal(-7)))
        CFI R7 load(1, XDATA, add(CFA_XSP16, literal(-6)))
        CFI ?RET_LOW load(1, XDATA, add(CFA_XSP16, literal(-5)))
        CFI ?RET_HIGH load(1, XDATA, add(CFA_XSP16, literal(-4)))
        CFI ?BRET_EXT load(1, XDATA, add(CFA_XSP16, literal(-3)))
        CFI DPL0 load(1, XDATA, add(CFA_XSP16, literal(-2)))
        CFI DPH0 load(1, XDATA, add(CFA_XSP16, literal(-1)))
        CFI CFA_SP SP+0
        CFI CFA_XSP16 add(XSP16, 9)
        CFI Block cfiCond3 Using cfiCommon0
        CFI (cfiCond3) NoFunction
        CFI (cfiCond3) Conditional ??CrossCallReturnLabel_5
        CFI (cfiCond3) DPL0 Frame(CFA_SP, 4)
        CFI (cfiCond3) DPH0 Frame(CFA_SP, 5)
        CFI (cfiCond3) CFA_SP SP+-5
        CFI Block cfiPicker4 Using cfiCommon1
        CFI (cfiPicker4) NoFunction
        CFI (cfiPicker4) Picker
        LCALL   ??Delay_10us?relay
        ; Setup parameters for call to function Delay_10us
        ; Setup parameters for call to function Delay_10us
        LCALL   ??Delay_10us?relay
        ; Setup parameters for call to function Delay_10us
        ; Setup parameters for call to function Delay_10us
        LCALL   ??Delay_10us?relay
        RET
        CFI EndBlock cfiCond2
        CFI EndBlock cfiCond3
        CFI EndBlock cfiPicker4

        RSEG BANKED_CODE:CODE:NOROOT(0)
?Subroutine1:
        CFI Block cfiCond5 Using cfiCommon0
        CFI NoFunction
        CFI Conditional ??CrossCallReturnLabel_0
        CFI R6 load(1, XDATA, add(CFA_XSP16, literal(-9)))
        CFI VB load(1, XDATA, add(CFA_XSP16, literal(-8)))
        CFI V0 load(1, XDATA, add(CFA_XSP16, literal(-7)))
        CFI R7 load(1, XDATA, add(CFA_XSP16, literal(-6)))
        CFI ?RET_LOW load(1, XDATA, add(CFA_XSP16, literal(-5)))
        CFI ?RET_HIGH load(1, XDATA, add(CFA_XSP16, literal(-4)))
        CFI ?BRET_EXT load(1, XDATA, add(CFA_XSP16, literal(-3)))
        CFI DPL0 load(1, XDATA, add(CFA_XSP16, literal(-2)))
        CFI DPH0 load(1, XDATA, add(CFA_XSP16, literal(-1)))
        CFI CFA_SP SP+0
        CFI CFA_XSP16 add(XSP16, 9)
        CFI Block cfiCond6 Using cfiCommon0
        CFI (cfiCond6) NoFunction
        CFI (cfiCond6) Conditional ??CrossCallReturnLabel_1
        CFI (cfiCond6) R6 load(1, XDATA, add(CFA_XSP16, literal(-9)))
        CFI (cfiCond6) VB load(1, XDATA, add(CFA_XSP16, literal(-8)))
        CFI (cfiCond6) V0 load(1, XDATA, add(CFA_XSP16, literal(-7)))
        CFI (cfiCond6) R7 load(1, XDATA, add(CFA_XSP16, literal(-6)))
        CFI (cfiCond6) ?RET_LOW load(1, XDATA, add(CFA_XSP16, literal(-5)))
        CFI (cfiCond6) ?RET_HIGH load(1, XDATA, add(CFA_XSP16, literal(-4)))
        CFI (cfiCond6) ?BRET_EXT load(1, XDATA, add(CFA_XSP16, literal(-3)))
        CFI (cfiCond6) DPL0 load(1, XDATA, add(CFA_XSP16, literal(-2)))
        CFI (cfiCond6) DPH0 load(1, XDATA, add(CFA_XSP16, literal(-1)))
        CFI (cfiCond6) CFA_SP SP+0
        CFI (cfiCond6) CFA_XSP16 add(XSP16, 9)
        CFI Block cfiCond7 Using cfiCommon0
        CFI (cfiCond7) NoFunction
        CFI (cfiCond7) Conditional ??CrossCallReturnLabel_2
        CFI (cfiCond7) DPL0 Frame(CFA_SP, 4)
        CFI (cfiCond7) DPH0 Frame(CFA_SP, 5)
        CFI (cfiCond7) CFA_SP SP+-5
        CFI Block cfiCond8 Using cfiCommon0
        CFI (cfiCond8) NoFunction
        CFI (cfiCond8) Conditional ??CrossCallReturnLabel_3
        CFI (cfiCond8) DPL0 Frame(CFA_SP, 4)
        CFI (cfiCond8) DPH0 Frame(CFA_SP, 5)
        CFI (cfiCond8) CFA_SP SP+-5
        CFI Block cfiPicker9 Using cfiCommon1
        CFI (cfiPicker9) NoFunction
        CFI (cfiPicker9) Picker
        MOVX    A,@DPTR
        MOV     R0,A
        MOV     A,#0x1
        ADD     A,R0
        MOVX    @DPTR,A
        MOV     A,R0
        RET
        CFI EndBlock cfiCond5
        CFI EndBlock cfiCond6
        CFI EndBlock cfiCond7
        CFI EndBlock cfiCond8
        CFI EndBlock cfiPicker9

        RSEG BANKED_CODE:CODE:NOROOT(0)
?Subroutine0:
        CFI Block cfiCond10 Using cfiCommon0
        CFI NoFunction
        CFI Conditional ??CrossCallReturnLabel_6
        CFI DPL0 Frame(CFA_SP, 4)
        CFI DPH0 Frame(CFA_SP, 5)
        CFI CFA_SP SP+-5
        CFI Block cfiCond11 Using cfiCommon0
        CFI (cfiCond11) NoFunction
        CFI (cfiCond11) Conditional ??CrossCallReturnLabel_7
        CFI (cfiCond11) DPL0 Frame(CFA_SP, 4)
        CFI (cfiCond11) DPH0 Frame(CFA_SP, 5)
        CFI (cfiCond11) CFA_SP SP+-5
        CFI Block cfiCond12 Using cfiCommon0
        CFI (cfiCond12) NoFunction
        CFI (cfiCond12) Conditional ??CrossCallReturnLabel_8
        CFI (cfiCond12) DPL0 Frame(CFA_SP, 4)
        CFI (cfiCond12) DPH0 Frame(CFA_SP, 5)
        CFI (cfiCond12) CFA_SP SP+-5
        CFI Block cfiCond13 Using cfiCommon0
        CFI (cfiCond13) NoFunction
        CFI (cfiCond13) Conditional ??CrossCallReturnLabel_9
        CFI (cfiCond13) DPL0 Frame(CFA_SP, 4)
        CFI (cfiCond13) DPH0 Frame(CFA_SP, 5)
        CFI (cfiCond13) CFA_SP SP+-5
        CFI Block cfiPicker14 Using cfiCommon1
        CFI (cfiPicker14) NoFunction
        CFI (cfiPicker14) Picker
        MOVX    @DPTR,A
        CFI EndBlock cfiCond10
        CFI EndBlock cfiCond11
        CFI EndBlock cfiCond12
        CFI EndBlock cfiCond13
        CFI EndBlock cfiPicker14
        ; Setup parameters for call to function COM
        ; Setup parameters for call to function COM
        ; Setup parameters for call to function COM
        ; Setup parameters for call to function COM
        REQUIRE ??Subroutine3_0
        ; // Fall through to label ??Subroutine3_0

        RSEG BANKED_CODE:CODE:NOROOT(0)
??Subroutine3_0:
        CFI Block cfiCond15 Using cfiCommon0
        CFI NoFunction
        CFI Conditional ??CrossCallReturnLabel_10
        CFI DPL0 Frame(CFA_SP, 4)
        CFI DPH0 Frame(CFA_SP, 5)
        CFI CFA_SP SP+-5
        CFI Block cfiCond16 Using cfiCommon0
        CFI (cfiCond16) NoFunction
        CFI (cfiCond16) Conditional ??CrossCallReturnLabel_6
        CFI (cfiCond16) DPL0 Frame(CFA_SP, 4)
        CFI (cfiCond16) DPH0 Frame(CFA_SP, 5)
        CFI (cfiCond16) CFA_SP SP+-5
        CFI Block cfiCond17 Using cfiCommon0
        CFI (cfiCond17) NoFunction
        CFI (cfiCond17) Conditional ??CrossCallReturnLabel_7
        CFI (cfiCond17) DPL0 Frame(CFA_SP, 4)
        CFI (cfiCond17) DPH0 Frame(CFA_SP, 5)
        CFI (cfiCond17) CFA_SP SP+-5
        CFI Block cfiCond18 Using cfiCommon0
        CFI (cfiCond18) NoFunction
        CFI (cfiCond18) Conditional ??CrossCallReturnLabel_8
        CFI (cfiCond18) DPL0 Frame(CFA_SP, 4)
        CFI (cfiCond18) DPH0 Frame(CFA_SP, 5)
        CFI (cfiCond18) CFA_SP SP+-5
        CFI Block cfiCond19 Using cfiCommon0
        CFI (cfiCond19) NoFunction
        CFI (cfiCond19) Conditional ??CrossCallReturnLabel_9
        CFI (cfiCond19) DPL0 Frame(CFA_SP, 4)
        CFI (cfiCond19) DPH0 Frame(CFA_SP, 5)
        CFI (cfiCond19) CFA_SP SP+-5
        CFI Block cfiPicker20 Using cfiCommon1
        CFI (cfiPicker20) NoFunction
        CFI (cfiPicker20) Picker
        LCALL   ??COM?relay
        MOV     DPTR,#ucharcomdata
        MOVX    A,@DPTR
        RET
        CFI EndBlock cfiCond15
        CFI EndBlock cfiCond16
        CFI EndBlock cfiCond17
        CFI EndBlock cfiCond18
        CFI EndBlock cfiCond19
        CFI EndBlock cfiPicker20

        RSEG XDATA_ID:CODE:NOROOT(0)
`?<Initializer for wendu_ge>`:
        DATA8
        DB 4

        RSEG BANK_RELAYS:CODE:REORDER:NOROOT(0)
??COM?relay:
        LCALL   ?BDISPATCH
        DATA
        DC24    COM

        RSEG BANK_RELAYS:CODE:REORDER:NOROOT(0)
??DHT11_TEST?relay:
        LCALL   ?BDISPATCH
        DATA
        DC24    DHT11_TEST

        END
// 
// 386 bytes in segment BANKED_CODE
//  12 bytes in segment BANK_RELAYS
//   2 bytes in segment SFR_AN
//   1 byte  in segment XDATA_I
//   1 byte  in segment XDATA_ID
//  16 bytes in segment XDATA_Z
// 
// 399 bytes of CODE  memory
//   0 bytes of DATA  memory (+ 2 bytes shared)
//  17 bytes of XDATA memory
//
//Errors: none
//Warnings: none
