###############################################################################
#                                                                             #
# IAR C/C++ Compiler V8.10.3.10338/W32 for 8051         11/Aug/2021  23:37:49 #
# Copyright 2004-2011 IAR Systems AB.                                         #
#                                                                             #
#    Core               =  plain                                              #
#    Code model         =  banked                                             #
#    Data model         =  large                                              #
#    Calling convention =  xdata reentrant                                    #
#    Constant location  =  data_rom                                           #
#    Dptr setup         =  1,16                                               #
#    Source file        =  D:\test_nb\ґъВл\¶аЦХ¶Л\Projects\zstack\Samples\Gen #
#                          ericApp\Source\DHT11.C                             #
#    Command line       =  -f D:\test_nb\ґъВл\¶аЦХ¶Л\Projects\zstack\Samples\ #
#                          GenericApp\CC2530DB\..\..\..\Tools\CC2530DB\f8wEnd #
#                          ev.cfg (-DCPU32MHZ -DROOT=__near_func              #
#                          -DMAC_CFG_TX_DATA_MAX=3 -DMAC_CFG_TX_MAX=6         #
#                          -DMAC_CFG_RX_MAX=3) -f D:\test_nb\ґъВл\¶аЦХ¶Л\Proj #
#                          ects\zstack\Samples\GenericApp\CC2530DB\..\..\..\T #
#                          ools\CC2530DB\f8wConfig.cfg (-DZIGBEEPRO           #
#                          -DSECURE=0 -DZG_SECURE_DYNAMIC=0 -DREFLECTOR       #
#                          -DDEFAULT_CHANLIST=0x00000800                      #
#                          -DZDAPP_CONFIG_PAN_ID=0xFFFF                       #
#                          -DNWK_START_DELAY=100 -DEXTENDED_JOINING_RANDOM_MA #
#                          SK=0x007F -DBEACON_REQUEST_DELAY=100               #
#                          -DBEACON_REQ_DELAY_MASK=0x00FF                     #
#                          -DLINK_STATUS_JITTER_MASK=0x007F                   #
#                          -DROUTE_EXPIRY_TIME=30 -DAPSC_ACK_WAIT_DURATION_PO #
#                          LLED=3000 -DNWK_INDIRECT_MSG_TIMEOUT=7             #
#                          -DMAX_RREQ_ENTRIES=8 -DAPSC_MAX_FRAME_RETRIES=3    #
#                          -DNWK_MAX_DATA_RETRIES=2                           #
#                          -DMAX_POLL_FAILURE_RETRIES=2 -DMAX_BCAST=9         #
#                          -DAPS_MAX_GROUPS=16 -DMAX_RTG_ENTRIES=40           #
#                          -DNWK_MAX_BINDING_ENTRIES=4                        #
#                          -DMAX_BINDING_CLUSTER_IDS=4 "-DDEFAULT_KEY={0x01,  #
#                          0x03, 0x05, 0x07, 0x09, 0x0B, 0x0D, 0x0F, 0x00,    #
#                          0x02, 0x04, 0x06, 0x08, 0x0A, 0x0C, 0x0D}"         #
#                          -DMAC_MAX_FRAME_SIZE=116                           #
#                          -DZDNWKMGR_MIN_TRANSMISSIONS=20 "-DCONST=const     #
#                          __code" -DGENERIC=__generic                        #
#                          -DRFD_RCVC_ALWAYS_ON=FALSE -DPOLL_RATE=1000        #
#                          -DQUEUED_POLL_RATE=100 -DRESPONSE_POLL_RATE=100)   #
#                          -DREJOIN_POLL_RATE=440 D:\test_nb\ґъВл\¶аЦХ¶Л\Proj #
#                          ects\zstack\Samples\GenericApp\Source\DHT11.C -D   #
#                          NWK_AUTO_POLL -D ZTOOL_P1 -D LCD_SUPPORTED=DEBUG   #
#                          -lC D:\test_nb\ґъВл\¶аЦХ¶Л\Projects\zstack\Samples #
#                          \GenericApp\CC2530DB\EndDeviceEB\List\ -lA         #
#                          D:\test_nb\ґъВл\¶аЦХ¶Л\Projects\zstack\Samples\Gen #
#                          ericApp\CC2530DB\EndDeviceEB\List\                 #
#                          --diag_suppress Pe001,Pa010 -o                     #
#                          D:\test_nb\ґъВл\¶аЦХ¶Л\Projects\zstack\Samples\Gen #
#                          ericApp\CC2530DB\EndDeviceEB\Obj\ -e               #
#                          --no_code_motion --debug --core=plain --dptr=16,1  #
#                          --data_model=large --code_model=banked             #
#                          --calling_convention=xdata_reentrant               #
#                          --place_constants=data_rom --nr_virtual_regs 16    #
#                          -I D:\test_nb\ґъВл\¶аЦХ¶Л\Projects\zstack\Samples\ #
#                          GenericApp\CC2530DB\ -I D:\test_nb\ґъВл\¶аЦХ¶Л\Pro #
#                          jects\zstack\Samples\GenericApp\CC2530DB\..\Source #
#                          \ -I D:\test_nb\ґъВл\¶аЦХ¶Л\Projects\zstack\Sample #
#                          s\GenericApp\CC2530DB\..\..\..\ZMain\TI2530DB\ -I  #
#                          D:\test_nb\ґъВл\¶аЦХ¶Л\Projects\zstack\Samples\Gen #
#                          ericApp\CC2530DB\..\..\..\..\..\Components\hal\inc #
#                          lude\ -I D:\test_nb\ґъВл\¶аЦХ¶Л\Projects\zstack\Sa #
#                          mples\GenericApp\CC2530DB\..\..\..\..\..\Component #
#                          s\hal\target\CC2530EB\ -I                          #
#                          D:\test_nb\ґъВл\¶аЦХ¶Л\Projects\zstack\Samples\Gen #
#                          ericApp\CC2530DB\..\..\..\..\..\Components\mac\inc #
#                          lude\ -I D:\test_nb\ґъВл\¶аЦХ¶Л\Projects\zstack\Sa #
#                          mples\GenericApp\CC2530DB\..\..\..\..\..\Component #
#                          s\mac\high_level\ -I D:\test_nb\ґъВл\¶аЦХ¶Л\Projec #
#                          ts\zstack\Samples\GenericApp\CC2530DB\..\..\..\..\ #
#                          ..\Components\mac\low_level\srf04\ -I              #
#                          D:\test_nb\ґъВл\¶аЦХ¶Л\Projects\zstack\Samples\Gen #
#                          ericApp\CC2530DB\..\..\..\..\..\Components\mac\low #
#                          _level\srf04\single_chip\ -I                       #
#                          D:\test_nb\ґъВл\¶аЦХ¶Л\Projects\zstack\Samples\Gen #
#                          ericApp\CC2530DB\..\..\..\..\..\Components\mt\ -I  #
#                          D:\test_nb\ґъВл\¶аЦХ¶Л\Projects\zstack\Samples\Gen #
#                          ericApp\CC2530DB\..\..\..\..\..\Components\osal\in #
#                          clude\ -I D:\test_nb\ґъВл\¶аЦХ¶Л\Projects\zstack\S #
#                          amples\GenericApp\CC2530DB\..\..\..\..\..\Componen #
#                          ts\services\saddr\ -I D:\test_nb\ґъВл\¶аЦХ¶Л\Proje #
#                          cts\zstack\Samples\GenericApp\CC2530DB\..\..\..\.. #
#                          \..\Components\services\sdata\ -I                  #
#                          D:\test_nb\ґъВл\¶аЦХ¶Л\Projects\zstack\Samples\Gen #
#                          ericApp\CC2530DB\..\..\..\..\..\Components\stack\a #
#                          f\ -I D:\test_nb\ґъВл\¶аЦХ¶Л\Projects\zstack\Sampl #
#                          es\GenericApp\CC2530DB\..\..\..\..\..\Components\s #
#                          tack\nwk\ -I D:\test_nb\ґъВл\¶аЦХ¶Л\Projects\zstac #
#                          k\Samples\GenericApp\CC2530DB\..\..\..\..\..\Compo #
#                          nents\stack\sapi\ -I D:\test_nb\ґъВл\¶аЦХ¶Л\Projec #
#                          ts\zstack\Samples\GenericApp\CC2530DB\..\..\..\..\ #
#                          ..\Components\stack\sec\ -I                        #
#                          D:\test_nb\ґъВл\¶аЦХ¶Л\Projects\zstack\Samples\Gen #
#                          ericApp\CC2530DB\..\..\..\..\..\Components\stack\s #
#                          ys\ -I D:\test_nb\ґъВл\¶аЦХ¶Л\Projects\zstack\Samp #
#                          les\GenericApp\CC2530DB\..\..\..\..\..\Components\ #
#                          stack\zdo\ -I D:\test_nb\ґъВл\¶аЦХ¶Л\Projects\zsta #
#                          ck\Samples\GenericApp\CC2530DB\..\..\..\..\..\Comp #
#                          onents\zmac\ -I D:\test_nb\ґъВл\¶аЦХ¶Л\Projects\zs #
#                          tack\Samples\GenericApp\CC2530DB\..\..\..\..\..\Co #
#                          mponents\zmac\f8w\ -Ohz --require_prototypes       #
#    List file          =  D:\test_nb\ґъВл\¶аЦХ¶Л\Projects\zstack\Samples\Gen #
#                          ericApp\CC2530DB\EndDeviceEB\List\DHT11.lst        #
#    Object file        =  D:\test_nb\ґъВл\¶аЦХ¶Л\Projects\zstack\Samples\Gen #
#                          ericApp\CC2530DB\EndDeviceEB\Obj\DHT11.r51         #
#                                                                             #
#                                                                             #
###############################################################################

D:\test_nb\ґъВл\¶аЦХ¶Л\Projects\zstack\Samples\GenericApp\Source\DHT11.C
      1          
      2          #include <ioCC2530.h>

   \                                 In  segment SFR_AN, at 0x80
   \   union <unnamed> volatile __sfr _A_P0
   \                     _A_P0:
   \   000000                DS 1

   \                                 In  segment SFR_AN, at 0xfd
   \   unsigned char volatile __sfr P0DIR
   \                     P0DIR:
   \   000000                DS 1
      3          #include "OnBoard.h"
      4          #include "delay.h"
      5          #define uint unsigned int
      6          #define uchar unsigned char
      7          
      8          #define  DATA_PIN P0_7
      9          
     10          /*******єЇКэЙщГч*********/
     11          void Delay_us(void); //1 usСУК±
     12          void Delay_10us(void); //10 usСУК±
     13          void Delay_ms(uint Time);//n msСУК±
     14          void COM(void);	// ОВКЄРґИл
     15          void DHT11_TEST(void) ;  //ОВКЄґ«ёРЖф¶Ї
     16          
     17          
     18          //ОВКЄ¶И¶ЁТе

   \                                 In  segment XDATA_Z, align 1, keep-with-next
     19          uchar ucharFLAG,uchartemp;
   \                     ucharFLAG:
   \   000000                DS 1
   \   000001                REQUIRE __INIT_XDATA_Z

   \                                 In  segment XDATA_Z, align 1, keep-with-next
   \                     uchartemp:
   \   000000                DS 1
   \   000001                REQUIRE __INIT_XDATA_Z

   \                                 In  segment XDATA_Z, align 1, keep-with-next
     20          uchar shidu_shi,shidu_ge,wendu_shi,wendu_ge=4;
   \                     shidu_shi:
   \   000000                DS 1
   \   000001                REQUIRE __INIT_XDATA_Z

   \                                 In  segment XDATA_Z, align 1, keep-with-next
   \                     shidu_ge:
   \   000000                DS 1
   \   000001                REQUIRE __INIT_XDATA_Z

   \                                 In  segment XDATA_Z, align 1, keep-with-next
   \                     wendu_shi:
   \   000000                DS 1
   \   000001                REQUIRE __INIT_XDATA_Z

   \                                 In  segment XDATA_I, align 1, keep-with-next
   \                     wendu_ge:
   \   000000                DS 1
   \   000001                REQUIRE `?<Initializer for wendu_ge>`
   \   000001                REQUIRE __INIT_XDATA_I

   \                                 In  segment XDATA_Z, align 1, keep-with-next
     21          uchar ucharT_data_H,ucharT_data_L,ucharRH_data_H,ucharRH_data_L,ucharcheckdata;
   \                     ucharT_data_H:
   \   000000                DS 1
   \   000001                REQUIRE __INIT_XDATA_Z

   \                                 In  segment XDATA_Z, align 1, keep-with-next
   \                     ucharT_data_L:
   \   000000                DS 1
   \   000001                REQUIRE __INIT_XDATA_Z

   \                                 In  segment XDATA_Z, align 1, keep-with-next
   \                     ucharRH_data_H:
   \   000000                DS 1
   \   000001                REQUIRE __INIT_XDATA_Z

   \                                 In  segment XDATA_Z, align 1, keep-with-next
   \                     ucharRH_data_L:
   \   000000                DS 1
   \   000001                REQUIRE __INIT_XDATA_Z

   \                                 In  segment XDATA_Z, align 1, keep-with-next
   \                     ucharcheckdata:
   \   000000                DS 1
   \   000001                REQUIRE __INIT_XDATA_Z

   \                                 In  segment XDATA_Z, align 1, keep-with-next
     22          uchar ucharT_data_H_temp,ucharT_data_L_temp,ucharRH_data_H_temp,ucharRH_data_L_temp,ucharcheckdata_temp;
   \                     ucharT_data_H_temp:
   \   000000                DS 1
   \   000001                REQUIRE __INIT_XDATA_Z

   \                                 In  segment XDATA_Z, align 1, keep-with-next
   \                     ucharT_data_L_temp:
   \   000000                DS 1
   \   000001                REQUIRE __INIT_XDATA_Z

   \                                 In  segment XDATA_Z, align 1, keep-with-next
   \                     ucharRH_data_H_temp:
   \   000000                DS 1
   \   000001                REQUIRE __INIT_XDATA_Z

   \                                 In  segment XDATA_Z, align 1, keep-with-next
   \                     ucharRH_data_L_temp:
   \   000000                DS 1
   \   000001                REQUIRE __INIT_XDATA_Z

   \                                 In  segment XDATA_Z, align 1, keep-with-next
   \                     ucharcheckdata_temp:
   \   000000                DS 1
   \   000001                REQUIRE __INIT_XDATA_Z

   \                                 In  segment XDATA_Z, align 1, keep-with-next
     23          uchar ucharcomdata;
   \                     ucharcomdata:
   \   000000                DS 1
   \   000001                REQUIRE __INIT_XDATA_Z
     24          
     25          
     26          
     27          /***********************
     28             ОВКЄ¶Иґ«ёР
     29          ***********************/

   \                                 In  segment BANKED_CODE, align 1, keep-with-next
     30          void COM(void)	// ОВКЄРґИл
   \                     COM:
     31          {     
   \   000000   74F7         MOV     A,#-0x9
   \   000002   12....       LCALL   ?BANKED_ENTER_XDATA
   \   000005                ; Saved register size: 9
   \   000005                ; Auto size: 0
     32              uchar i;         
     33              for(i=0;i<8;i++)    
   \   000005   7E08         MOV     R6,#0x8
     34              {
     35               ucharFLAG=2; 
   \                     ??COM_0:
   \   000007   90....       MOV     DPTR,#ucharFLAG
   \   00000A   7402         MOV     A,#0x2
   \   00000C   F0           MOVX    @DPTR,A
     36               while((!DATA_PIN)&&ucharFLAG++);
   \                     ??COM_1:
   \   00000D   A287         MOV     C,0x80.7
   \   00000F   4005         JC      ??COM_2
   \   000011   12....       LCALL   ?Subroutine1 & 0xFFFF
   \                     ??CrossCallReturnLabel_0:
   \   000014   70F7         JNZ     ??COM_1
     37               Delay_10us();
   \                     ??COM_2:
   \   000016                ; Setup parameters for call to function Delay_10us
   \   000016   12....       LCALL   ?Subroutine2 & 0xFFFF
     38               Delay_10us();
     39               Delay_10us();
     40               uchartemp=0;
   \                     ??CrossCallReturnLabel_4:
   \   000019   90....       MOV     DPTR,#uchartemp
   \   00001C   E4           CLR     A
   \   00001D   F0           MOVX    @DPTR,A
     41               if(DATA_PIN)uchartemp=1;
   \   00001E   A287         MOV     C,0x80.7
   \   000020   5002         JNC     ??COM_3
   \   000022   04           INC     A
   \   000023   F0           MOVX    @DPTR,A
     42               ucharFLAG=2;
   \                     ??COM_3:
   \   000024   90....       MOV     DPTR,#ucharFLAG
   \   000027   7402         MOV     A,#0x2
   \   000029   F0           MOVX    @DPTR,A
     43               while((DATA_PIN)&&ucharFLAG++);   
   \                     ??COM_4:
   \   00002A   A287         MOV     C,0x80.7
   \   00002C   5005         JNC     ??COM_5
   \   00002E   12....       LCALL   ?Subroutine1 & 0xFFFF
   \                     ??CrossCallReturnLabel_1:
   \   000031   70F7         JNZ     ??COM_4
     44               if(ucharFLAG==1)break;    
   \                     ??COM_5:
   \   000033   E0           MOVX    A,@DPTR
   \   000034   6401         XRL     A,#0x1
   \   000036   601B         JZ      ??COM_6
     45               ucharcomdata<<=1;
     46               ucharcomdata|=uchartemp; 
   \   000038   90....       MOV     DPTR,#uchartemp
   \   00003B   C082         PUSH    DPL
   \   00003D   90....       MOV     DPTR,#ucharcomdata
   \   000040   E0           MOVX    A,@DPTR
   \   000041   C3           CLR     C
   \   000042   33           RLC     A
   \   000043   7583..       MOV     DPH,#(uchartemp >> 8) & 0xff
   \   000046   D082         POP     DPL
   \   000048   F8           MOV     R0,A
   \   000049   E0           MOVX    A,@DPTR
   \   00004A   48           ORL     A,R0
   \   00004B   90....       MOV     DPTR,#ucharcomdata
   \   00004E   F0           MOVX    @DPTR,A
     47               }    
   \   00004F   1E           DEC     R6
   \   000050   EE           MOV     A,R6
   \   000051   70B4         JNZ     ??COM_0
     48          }
   \                     ??COM_6:
   \   000053   7F01         MOV     R7,#0x1
   \   000055   02....       LJMP    ?BANKED_LEAVE_XDATA
   \   000058                REQUIRE _A_P0

   \                                 In  segment BANKED_CODE, align 1, keep-with-next
   \                     ?Subroutine2:
   \   000000   12....       LCALL   ??Delay_10us?relay
   \   000003                ; Setup parameters for call to function Delay_10us
   \   000003                ; Setup parameters for call to function Delay_10us
   \   000003   12....       LCALL   ??Delay_10us?relay
   \   000006                ; Setup parameters for call to function Delay_10us
   \   000006                ; Setup parameters for call to function Delay_10us
   \   000006   12....       LCALL   ??Delay_10us?relay
   \   000009   22           RET

   \                                 In  segment BANKED_CODE, align 1, keep-with-next
   \                     ?Subroutine1:
   \   000000   E0           MOVX    A,@DPTR
   \   000001   F8           MOV     R0,A
   \   000002   7401         MOV     A,#0x1
   \   000004   28           ADD     A,R0
   \   000005   F0           MOVX    @DPTR,A
   \   000006   E8           MOV     A,R0
   \   000007   22           RET
     49          

   \                                 In  segment BANKED_CODE, align 1, keep-with-next
     50          void DHT11_TEST(void)   //ОВКЄґ«ёРЖф¶Ї
   \                     DHT11_TEST:
     51          {
   \   000000   C082         PUSH    DPL
   \   000002   C083         PUSH    DPH
   \   000004                ; Saved register size: 2
   \   000004                ; Auto size: 0
     52              DATA_PIN=0;
   \   000004   C287         CLR     0x80.7
     53              Delay_ms(19);  //>18MS
   \   000006                ; Setup parameters for call to function Delay_ms
   \   000006   7A13         MOV     R2,#0x13
   \   000008   7B00         MOV     R3,#0x0
   \   00000A   12....       LCALL   ??Delay_ms?relay
     54              DATA_PIN=1; 
   \   00000D   D287         SETB    0x80.7
     55              P0DIR &= ~0x80; //ЦШРВЕдЦГIOїЪ·ЅПт
   \   00000F   53FD7F       ANL     0xfd,#0x7f
     56              Delay_10us();
   \   000012                ; Setup parameters for call to function Delay_10us
   \   000012   12....       LCALL   ?Subroutine2 & 0xFFFF
     57              Delay_10us();						
     58              Delay_10us();
     59              Delay_10us();  
   \                     ??CrossCallReturnLabel_5:
   \   000015                ; Setup parameters for call to function Delay_10us
   \   000015   12....       LCALL   ??Delay_10us?relay
     60               if(!DATA_PIN) 
   \   000018   A287         MOV     C,0x80.7
   \   00001A   5003         JNC     $+5
   \   00001C   02....       LJMP    ??DHT11_TEST_0 & 0xFFFF
     61               {
     62                ucharFLAG=2; 
   \   00001F   90....       MOV     DPTR,#ucharFLAG
   \   000022   7402         MOV     A,#0x2
   \   000024   F0           MOVX    @DPTR,A
     63                while((!DATA_PIN)&&ucharFLAG++);
   \                     ??DHT11_TEST_1:
   \   000025   A287         MOV     C,0x80.7
   \   000027   4005         JC      ??DHT11_TEST_2
   \   000029   12....       LCALL   ?Subroutine1 & 0xFFFF
   \                     ??CrossCallReturnLabel_2:
   \   00002C   70F7         JNZ     ??DHT11_TEST_1
     64                ucharFLAG=2;
   \                     ??DHT11_TEST_2:
   \   00002E   7402         MOV     A,#0x2
   \   000030   F0           MOVX    @DPTR,A
     65                while((DATA_PIN)&&ucharFLAG++); 
   \                     ??DHT11_TEST_3:
   \   000031   A287         MOV     C,0x80.7
   \   000033   5005         JNC     ??DHT11_TEST_4
   \   000035   12....       LCALL   ?Subroutine1 & 0xFFFF
   \                     ??CrossCallReturnLabel_3:
   \   000038   70F7         JNZ     ??DHT11_TEST_3
     66                COM();
   \                     ??DHT11_TEST_4:
   \   00003A                ; Setup parameters for call to function COM
   \   00003A   12....       LCALL   ??Subroutine3_0 & 0xFFFF
     67                ucharRH_data_H_temp=ucharcomdata;
   \                     ??CrossCallReturnLabel_10:
   \   00003D   90....       MOV     DPTR,#ucharRH_data_H_temp
   \   000040   12....       LCALL   ?Subroutine0 & 0xFFFF
     68                COM();
     69                ucharRH_data_L_temp=ucharcomdata;
   \                     ??CrossCallReturnLabel_6:
   \   000043   90....       MOV     DPTR,#ucharRH_data_L_temp
   \   000046   12....       LCALL   ?Subroutine0 & 0xFFFF
     70                COM();
     71                ucharT_data_H_temp=ucharcomdata;
   \                     ??CrossCallReturnLabel_7:
   \   000049   90....       MOV     DPTR,#ucharT_data_H_temp
   \   00004C   12....       LCALL   ?Subroutine0 & 0xFFFF
     72                COM();
     73                ucharT_data_L_temp=ucharcomdata;
   \                     ??CrossCallReturnLabel_8:
   \   00004F   90....       MOV     DPTR,#ucharT_data_L_temp
   \   000052   12....       LCALL   ?Subroutine0 & 0xFFFF
     74                COM();
     75                ucharcheckdata_temp=ucharcomdata;
   \                     ??CrossCallReturnLabel_9:
   \   000055   90....       MOV     DPTR,#ucharcheckdata_temp
   \   000058   F0           MOVX    @DPTR,A
     76                DATA_PIN=1; 
   \   000059   D287         SETB    0x80.7
     77                uchartemp=(ucharT_data_H_temp+ucharT_data_L_temp+ucharRH_data_H_temp+ucharRH_data_L_temp);
   \   00005B   90....       MOV     DPTR,#ucharRH_data_L_temp
   \   00005E   C082         PUSH    DPL
   \   000060   C083         PUSH    DPH
   \   000062   90....       MOV     DPTR,#ucharRH_data_H_temp
   \   000065   C082         PUSH    DPL
   \   000067   C083         PUSH    DPH
   \   000069   90....       MOV     DPTR,#ucharT_data_L_temp
   \   00006C   C082         PUSH    DPL
   \   00006E   90....       MOV     DPTR,#ucharT_data_H_temp
   \   000071   E0           MOVX    A,@DPTR
   \   000072   7583..       MOV     DPH,#(ucharT_data_L_temp >> 8) & 0xff
   \   000075   D082         POP     DPL
   \   000077   F8           MOV     R0,A
   \   000078   E0           MOVX    A,@DPTR
   \   000079   28           ADD     A,R0
   \   00007A   D083         POP     DPH
   \   00007C   D082         POP     DPL
   \   00007E   F8           MOV     R0,A
   \   00007F   E0           MOVX    A,@DPTR
   \   000080   28           ADD     A,R0
   \   000081   D083         POP     DPH
   \   000083   D082         POP     DPL
   \   000085   F8           MOV     R0,A
   \   000086   E0           MOVX    A,@DPTR
   \   000087   28           ADD     A,R0
   \   000088   90....       MOV     DPTR,#uchartemp
   \   00008B   F0           MOVX    @DPTR,A
     78                 if(uchartemp==ucharcheckdata_temp)
   \   00008C   F8           MOV     R0,A
   \   00008D   90....       MOV     DPTR,#ucharcheckdata_temp
   \   000090   E0           MOVX    A,@DPTR
   \   000091   68           XRL     A,R0
   \   000092   7028         JNZ     ??DHT11_TEST_5
     79                {
     80                    ucharRH_data_H=ucharRH_data_H_temp;
   \   000094   90....       MOV     DPTR,#ucharRH_data_H_temp
   \   000097   E0           MOVX    A,@DPTR
   \   000098   90....       MOV     DPTR,#ucharRH_data_H
   \   00009B   F0           MOVX    @DPTR,A
     81                    ucharRH_data_L=ucharRH_data_L_temp;
   \   00009C   90....       MOV     DPTR,#ucharRH_data_L_temp
   \   00009F   E0           MOVX    A,@DPTR
   \   0000A0   90....       MOV     DPTR,#ucharRH_data_L
   \   0000A3   F0           MOVX    @DPTR,A
     82                    ucharT_data_H=ucharT_data_H_temp;
   \   0000A4   90....       MOV     DPTR,#ucharT_data_H_temp
   \   0000A7   E0           MOVX    A,@DPTR
   \   0000A8   90....       MOV     DPTR,#ucharT_data_H
   \   0000AB   F0           MOVX    @DPTR,A
     83                    ucharT_data_L=ucharT_data_L_temp;
   \   0000AC   90....       MOV     DPTR,#ucharT_data_L_temp
   \   0000AF   E0           MOVX    A,@DPTR
   \   0000B0   90....       MOV     DPTR,#ucharT_data_L
   \   0000B3   F0           MOVX    @DPTR,A
     84                    ucharcheckdata=ucharcheckdata_temp;
   \   0000B4   90....       MOV     DPTR,#ucharcheckdata_temp
   \   0000B7   E0           MOVX    A,@DPTR
   \   0000B8   90....       MOV     DPTR,#ucharcheckdata
   \   0000BB   F0           MOVX    @DPTR,A
     85                 }
     86                   wendu_shi=ucharT_data_H/10; 
   \                     ??DHT11_TEST_5:
   \   0000BC   75F00A       MOV     B,#0xa
   \   0000BF   90....       MOV     DPTR,#ucharT_data_H
   \   0000C2   E0           MOVX    A,@DPTR
   \   0000C3   84           DIV     AB
   \   0000C4   90....       MOV     DPTR,#wendu_shi
   \   0000C7   F0           MOVX    @DPTR,A
     87                   wendu_ge=ucharT_data_H%10;
   \   0000C8   90....       MOV     DPTR,#ucharT_data_H
   \   0000CB   E0           MOVX    A,@DPTR
   \   0000CC   75F00A       MOV     B,#0xa
   \   0000CF   84           DIV     AB
   \   0000D0   E5F0         MOV     A,B
   \   0000D2   90....       MOV     DPTR,#wendu_ge
   \   0000D5   F0           MOVX    @DPTR,A
     88          	 
     89                   shidu_shi=ucharRH_data_H/10; 
   \   0000D6   75F00A       MOV     B,#0xa
   \   0000D9   90....       MOV     DPTR,#ucharRH_data_H
   \   0000DC   E0           MOVX    A,@DPTR
   \   0000DD   84           DIV     AB
   \   0000DE   90....       MOV     DPTR,#shidu_shi
   \   0000E1   F0           MOVX    @DPTR,A
     90                   shidu_ge=ucharRH_data_H%10;        
   \   0000E2   90....       MOV     DPTR,#ucharRH_data_H
   \   0000E5   E0           MOVX    A,@DPTR
   \   0000E6   75F00A       MOV     B,#0xa
   \   0000E9   84           DIV     AB
   \   0000EA   E5F0         MOV     A,B
   \   0000EC   90....       MOV     DPTR,#shidu_ge
   \   0000EF   8013         SJMP    ??DHT11_TEST_6
     91              } 
     92              else //Г»УГіЙ№¦¶БИЎЈ¬·µ»Ш0
     93              {
     94                   wendu_shi=0; 
   \                     ??DHT11_TEST_0:
   \   0000F1   90....       MOV     DPTR,#wendu_shi
   \   0000F4   E4           CLR     A
   \   0000F5   F0           MOVX    @DPTR,A
     95                   wendu_ge=1;
   \   0000F6   90....       MOV     DPTR,#wendu_ge
   \   0000F9   04           INC     A
   \   0000FA   F0           MOVX    @DPTR,A
     96          	 
     97                   shidu_shi=0; 
   \   0000FB   90....       MOV     DPTR,#shidu_shi
   \   0000FE   E4           CLR     A
   \   0000FF   F0           MOVX    @DPTR,A
     98                   shidu_ge=1;  
   \   000100   90....       MOV     DPTR,#shidu_ge
   \   000103   04           INC     A
   \                     ??DHT11_TEST_6:
   \   000104   F0           MOVX    @DPTR,A
     99              } 
    100              
    101               P0DIR |= 0x80; //IOїЪРиТЄЦШРВЕдЦГ 
   \   000105   43FD80       ORL     0xfd,#0x80
    102          }
   \   000108   D083         POP     DPH
   \   00010A   D082         POP     DPL
   \   00010C   02....       LJMP    ?BRET
   \   00010F                REQUIRE _A_P0
   \   00010F                REQUIRE P0DIR

   \                                 In  segment BANKED_CODE, align 1, keep-with-next
   \                     ?Subroutine0:
   \   000000   F0           MOVX    @DPTR,A
   \   000001                ; Setup parameters for call to function COM
   \   000001                ; Setup parameters for call to function COM
   \   000001                ; Setup parameters for call to function COM
   \   000001                ; Setup parameters for call to function COM
   \   000001                REQUIRE ??Subroutine3_0
   \   000001                ; // Fall through to label ??Subroutine3_0

   \                                 In  segment BANKED_CODE, align 1, keep-with-next
   \                     ??Subroutine3_0:
   \   000000   12....       LCALL   ??COM?relay
   \   000003   90....       MOV     DPTR,#ucharcomdata
   \   000006   E0           MOVX    A,@DPTR
   \   000007   22           RET

   \                                 In  segment XDATA_ID, align 1, keep-with-next
   \                     `?<Initializer for wendu_ge>`:
   \   000000   04           DB 4

   \                                 In  segment BANK_RELAYS, align 1
   \                     ??COM?relay:
   \   000000   12....       LCALL   ?BDISPATCH
   \   000003   ......       DC24    COM

   \                                 In  segment BANK_RELAYS, align 1
   \                     ??DHT11_TEST?relay:
   \   000000   12....       LCALL   ?BDISPATCH
   \   000003   ......       DC24    DHT11_TEST

   Maximum stack usage in bytes:

     Function        ISTACK PSTACK XSTACK
     --------        ------ ------ ------
     COM                 2      0      9
       -> Delay_10us     0      0     18
       -> Delay_10us     0      0     18
       -> Delay_10us     0      0     18
     DHT11_TEST          8      0      0
       -> Delay_ms       4      0      0
       -> Delay_10us     4      0      0
       -> Delay_10us     4      0      0
       -> Delay_10us     4      0      0
       -> Delay_10us     4      0      0
       -> COM            4      0      0
       -> COM            4      0      0
       -> COM            4      0      0
       -> COM            4      0      0
       -> COM            4      0      0


   Segment part sizes:

     Function/Label              Bytes
     --------------              -----
     _A_P0                          1
     P0DIR                          1
     ucharFLAG                      1
     uchartemp                      1
     shidu_shi                      1
     shidu_ge                       1
     wendu_shi                      1
     wendu_ge                       1
     ucharT_data_H                  1
     ucharT_data_L                  1
     ucharRH_data_H                 1
     ucharRH_data_L                 1
     ucharcheckdata                 1
     ucharT_data_H_temp             1
     ucharT_data_L_temp             1
     ucharRH_data_H_temp            1
     ucharRH_data_L_temp            1
     ucharcheckdata_temp            1
     ucharcomdata                   1
     COM                           88
     ?Subroutine2                  10
     ?Subroutine1                   8
     DHT11_TEST                   271
     ?Subroutine0                   1
     ??Subroutine3_0                8
     ?<Initializer for wendu_ge>    1
     ??COM?relay                    6
     ??DHT11_TEST?relay             6

 
 386 bytes in segment BANKED_CODE
  12 bytes in segment BANK_RELAYS
   2 bytes in segment SFR_AN
   1 byte  in segment XDATA_I
   1 byte  in segment XDATA_ID
  16 bytes in segment XDATA_Z
 
 399 bytes of CODE  memory
   0 bytes of DATA  memory (+ 2 bytes shared)
  17 bytes of XDATA memory

Errors: none
Warnings: none
