///////////////////////////////////////////////////////////////////////////////
//                                                                            /
// IAR C/C++ Compiler V8.10.3.10338/W32 for 8051        09/Jan/2022  14:41:30 /
// Copyright 2004-2011 IAR Systems AB.                                        /
//                                                                            /
//    Core               =  plain                                             /
//    Code model         =  banked                                            /
//    Data model         =  large                                             /
//    Calling convention =  xdata reentrant                                   /
//    Constant location  =  data_rom                                          /
//    Dptr setup         =  1,16                                              /
//    Source file        =  D:\test_nb\代码\多终端\Projects\zstack\Samples\Ge /
//                          nericApp\Source\enddevice.c                       /
//    Command line       =  -f D:\test_nb\代码\多终端\Projects\zstack\Samples /
//                          \GenericApp\CC2530DB\..\..\..\Tools\CC2530DB\f8wE /
//                          ndev.cfg (-DCPU32MHZ -DROOT=__near_func           /
//                          -DMAC_CFG_TX_DATA_MAX=3 -DMAC_CFG_TX_MAX=6        /
//                          -DMAC_CFG_RX_MAX=3) -f D:\test_nb\代码\多终端\Pro /
//                          jects\zstack\Samples\GenericApp\CC2530DB\..\..\.. /
//                          \Tools\CC2530DB\f8wConfig.cfg (-DZIGBEEPRO        /
//                          -DSECURE=0 -DZG_SECURE_DYNAMIC=0 -DREFLECTOR      /
//                          -DDEFAULT_CHANLIST=0x00000800                     /
//                          -DZDAPP_CONFIG_PAN_ID=0xFFFF                      /
//                          -DNWK_START_DELAY=100 -DEXTENDED_JOINING_RANDOM_M /
//                          ASK=0x007F -DBEACON_REQUEST_DELAY=100             /
//                          -DBEACON_REQ_DELAY_MASK=0x00FF                    /
//                          -DLINK_STATUS_JITTER_MASK=0x007F                  /
//                          -DROUTE_EXPIRY_TIME=30 -DAPSC_ACK_WAIT_DURATION_P /
//                          OLLED=3000 -DNWK_INDIRECT_MSG_TIMEOUT=7           /
//                          -DMAX_RREQ_ENTRIES=8 -DAPSC_MAX_FRAME_RETRIES=3   /
//                          -DNWK_MAX_DATA_RETRIES=2                          /
//                          -DMAX_POLL_FAILURE_RETRIES=2 -DMAX_BCAST=9        /
//                          -DAPS_MAX_GROUPS=16 -DMAX_RTG_ENTRIES=40          /
//                          -DNWK_MAX_BINDING_ENTRIES=4                       /
//                          -DMAX_BINDING_CLUSTER_IDS=4                       /
//                          "-DDEFAULT_KEY={0x01, 0x03, 0x05, 0x07, 0x09,     /
//                          0x0B, 0x0D, 0x0F, 0x00, 0x02, 0x04, 0x06, 0x08,   /
//                          0x0A, 0x0C, 0x0D}" -DMAC_MAX_FRAME_SIZE=116       /
//                          -DZDNWKMGR_MIN_TRANSMISSIONS=20 "-DCONST=const    /
//                          __code" -DGENERIC=__generic                       /
//                          -DRFD_RCVC_ALWAYS_ON=FALSE -DPOLL_RATE=1000       /
//                          -DQUEUED_POLL_RATE=100 -DRESPONSE_POLL_RATE=100)  /
//                          -DREJOIN_POLL_RATE=440 D:\test_nb\代码\多终端\Pro /
//                          jects\zstack\Samples\GenericApp\Source\enddevice. /
//                          c -D NWK_AUTO_POLL -D ZTOOL_P1 -D                 /
//                          LCD_SUPPORTED=DEBUG -lC                           /
//                          D:\test_nb\代码\多终端\Projects\zstack\Samples\Ge /
//                          nericApp\CC2530DB\EndDeviceEB\List\ -lA           /
//                          D:\test_nb\代码\多终端\Projects\zstack\Samples\Ge /
//                          nericApp\CC2530DB\EndDeviceEB\List\               /
//                          --diag_suppress Pe001,Pa010 -o                    /
//                          D:\test_nb\代码\多终端\Projects\zstack\Samples\Ge /
//                          nericApp\CC2530DB\EndDeviceEB\Obj\ -e             /
//                          --no_code_motion --debug --core=plain             /
//                          --dptr=16,1 --data_model=large                    /
//                          --code_model=banked --calling_convention=xdata_re /
//                          entrant --place_constants=data_rom                /
//                          --nr_virtual_regs 16 -I                           /
//                          D:\test_nb\代码\多终端\Projects\zstack\Samples\Ge /
//                          nericApp\CC2530DB\ -I D:\test_nb\代码\多终端\Proj /
//                          ects\zstack\Samples\GenericApp\CC2530DB\..\Source /
//                          \ -I D:\test_nb\代码\多终端\Projects\zstack\Sampl /
//                          es\GenericApp\CC2530DB\..\..\..\ZMain\TI2530DB\   /
//                          -I D:\test_nb\代码\多终端\Projects\zstack\Samples /
//                          \GenericApp\CC2530DB\..\..\..\..\..\Components\ha /
//                          l\include\ -I D:\test_nb\代码\多终端\Projects\zst /
//                          ack\Samples\GenericApp\CC2530DB\..\..\..\..\..\Co /
//                          mponents\hal\target\CC2530EB\ -I                  /
//                          D:\test_nb\代码\多终端\Projects\zstack\Samples\Ge /
//                          nericApp\CC2530DB\..\..\..\..\..\Components\mac\i /
//                          nclude\ -I D:\test_nb\代码\多终端\Projects\zstack /
//                          \Samples\GenericApp\CC2530DB\..\..\..\..\..\Compo /
//                          nents\mac\high_level\ -I                          /
//                          D:\test_nb\代码\多终端\Projects\zstack\Samples\Ge /
//                          nericApp\CC2530DB\..\..\..\..\..\Components\mac\l /
//                          ow_level\srf04\ -I D:\test_nb\代码\多终端\Project /
//                          s\zstack\Samples\GenericApp\CC2530DB\..\..\..\..\ /
//                          ..\Components\mac\low_level\srf04\single_chip\    /
//                          -I D:\test_nb\代码\多终端\Projects\zstack\Samples /
//                          \GenericApp\CC2530DB\..\..\..\..\..\Components\mt /
//                          \ -I D:\test_nb\代码\多终端\Projects\zstack\Sampl /
//                          es\GenericApp\CC2530DB\..\..\..\..\..\Components\ /
//                          osal\include\ -I D:\test_nb\代码\多终端\Projects\ /
//                          zstack\Samples\GenericApp\CC2530DB\..\..\..\..\.. /
//                          \Components\services\saddr\ -I                    /
//                          D:\test_nb\代码\多终端\Projects\zstack\Samples\Ge /
//                          nericApp\CC2530DB\..\..\..\..\..\Components\servi /
//                          ces\sdata\ -I D:\test_nb\代码\多终端\Projects\zst /
//                          ack\Samples\GenericApp\CC2530DB\..\..\..\..\..\Co /
//                          mponents\stack\af\ -I D:\test_nb\代码\多终端\Proj /
//                          ects\zstack\Samples\GenericApp\CC2530DB\..\..\..\ /
//                          ..\..\Components\stack\nwk\ -I                    /
//                          D:\test_nb\代码\多终端\Projects\zstack\Samples\Ge /
//                          nericApp\CC2530DB\..\..\..\..\..\Components\stack /
//                          \sapi\ -I D:\test_nb\代码\多终端\Projects\zstack\ /
//                          Samples\GenericApp\CC2530DB\..\..\..\..\..\Compon /
//                          ents\stack\sec\ -I D:\test_nb\代码\多终端\Project /
//                          s\zstack\Samples\GenericApp\CC2530DB\..\..\..\..\ /
//                          ..\Components\stack\sys\ -I                       /
//                          D:\test_nb\代码\多终端\Projects\zstack\Samples\Ge /
//                          nericApp\CC2530DB\..\..\..\..\..\Components\stack /
//                          \zdo\ -I D:\test_nb\代码\多终端\Projects\zstack\S /
//                          amples\GenericApp\CC2530DB\..\..\..\..\..\Compone /
//                          nts\zmac\ -I D:\test_nb\代码\多终端\Projects\zsta /
//                          ck\Samples\GenericApp\CC2530DB\..\..\..\..\..\Com /
//                          ponents\zmac\f8w\ -Ohz --require_prototypes       /
//    List file          =  D:\test_nb\代码\多终端\Projects\zstack\Samples\Ge /
//                          nericApp\CC2530DB\EndDeviceEB\List\enddevice.s51  /
//                                                                            /
//                                                                            /
///////////////////////////////////////////////////////////////////////////////

        NAME enddevice

        RTMODEL "__SystemLibrary", "CLib"
        RTMODEL "__calling_convention", "xdata_reentrant"
        RTMODEL "__code_model", "banked"
        RTMODEL "__core", "plain"
        RTMODEL "__data_model", "large"
        RTMODEL "__dptr_size", "16"
        RTMODEL "__extended_stack", "disabled"
        RTMODEL "__location_for_constants", "data"
        RTMODEL "__number_of_dptrs", "1"
        RTMODEL "__rt_version", "1"

        RSEG DOVERLAY:DATA:NOROOT(0)
        RSEG IOVERLAY:IDATA:NOROOT(0)
        RSEG ISTACK:IDATA:NOROOT(0)
        RSEG PSTACK:XDATA:NOROOT(0)
        RSEG XSTACK:XDATA:NOROOT(0)

        EXTERN ?ALLOC_XSTACK8
        EXTERN ?BANKED_ENTER_XDATA
        EXTERN ?BANKED_LEAVE_XDATA
        EXTERN ?BDISPATCH
        EXTERN ?BRET
        EXTERN ?DEALLOC_XSTACK8
        EXTERN ?FLT_MUL
        EXTERN ?FLT_TO_L
        EXTERN ?L_MOV_X
        EXTERN ?MOVE_LONG8_XDATA_XDATA
        EXTERN ?PUSH_XSTACK_I_ONE
        EXTERN ?PUSH_XSTACK_I_TWO
        EXTERN ?UL_TO_FLT
        EXTERN ?US_SWITCH_DENSE
        EXTERN ?US_SWITCH_SPARSE
        EXTERN ?V0
        EXTERN ?XSP
        EXTERN ?XSTACK_DISP0_8
        EXTERN __INIT_XDATA_I
        EXTERN __INIT_XDATA_Z

        PUBLIC ??GenericApp_Init?relay
        FUNCTION ??GenericApp_Init?relay,0203H
        PUBLIC ??GenericApp_ProcessEvent?relay
        FUNCTION ??GenericApp_ProcessEvent?relay,0203H
        FUNCTION ??GenericApp_SendTheMessage?relay,0203H
        PUBLIC ??GetADCMQ?relay
        FUNCTION ??GetADCMQ?relay,0203H
        PUBLIC ??HCSR501?relay
        FUNCTION ??HCSR501?relay,0203H
        PUBLIC ??InitIO?relay
        FUNCTION ??InitIO?relay,0203H
        PUBLIC ??InitTimer?relay
        FUNCTION ??InitTimer?relay,0203H
        PUBLIC ??Init_Beep?relay
        FUNCTION ??Init_Beep?relay,0203H
        PUBLIC ??MotorDoProcessedData?relay
        FUNCTION ??MotorDoProcessedData?relay,0203H
        PUBLIC ??MotorDoProcessedNi?relay
        FUNCTION ??MotorDoProcessedNi?relay,0203H
        PUBLIC ??MotorDoProcessedShun?relay
        FUNCTION ??MotorDoProcessedShun?relay,0203H
        PUBLIC ??MotorDoProcessedStop?relay
        FUNCTION ??MotorDoProcessedStop?relay,0203H
        PUBLIC ??UartInitPort0?relay
        FUNCTION ??UartInitPort0?relay,0203H
        PUBLIC ??controlBeer?relay
        FUNCTION ??controlBeer?relay,0203H
        PUBLIC ??controlMotor?relay
        FUNCTION ??controlMotor?relay,0203H
        PUBLIC ??controlRelay?relay
        FUNCTION ??controlRelay?relay,0203H
        PUBLIC ??getFrame?relay
        FUNCTION ??getFrame?relay,0203H
        PUBLIC ??openLed?relay
        FUNCTION ??openLed?relay,0203H
        FUNCTION ??rxCB?relay,0203H
        PUBLIC ??startPwm?relay
        FUNCTION ??startPwm?relay,0203H
        PUBLIC GenericApp_ClusterList
        PUBLIC GenericApp_DstAddr
        PUBLIC GenericApp_Init
        FUNCTION GenericApp_Init,021203H
        ARGFRAME XSTACK, 0, STACK
        LOCFRAME XSTACK, 9, STACK
        PUBLIC GenericApp_NwkState
        PUBLIC GenericApp_ProcessEvent
        FUNCTION GenericApp_ProcessEvent,0a1203H
        ARGFRAME XSTACK, 0, STACK
        LOCFRAME XSTACK, 32, STACK
        FUNCTION GenericApp_SendTheMessage,021203H
        ARGFRAME XSTACK, 23, STACK
        ARGFRAME IOVERLAY, 0, STATIC
        ARGFRAME DOVERLAY, 0, STATIC
        LOCFRAME ISTACK, 2, STACK
        LOCFRAME XSTACK, 91, STACK
        PUBLIC GenericApp_SimpleDesc
        PUBLIC GenericApp_TaskID
        PUBLIC GenericApp_TransID
        PUBLIC GenericApp_epDesc
        PUBLIC GetADCMQ
        FUNCTION GetADCMQ,021203H
        ARGFRAME XSTACK, 0, STACK
        LOCFRAME XSTACK, 16, STACK
        PUBLIC HCSR501
        FUNCTION HCSR501,021203H
        ARGFRAME XSTACK, 82, STACK
        ARGFRAME IOVERLAY, 0, STATIC
        ARGFRAME DOVERLAY, 0, STATIC
        LOCFRAME XSTACK, 9, STACK
        PUBLIC InitIO
        FUNCTION InitIO,0203H
        ARGFRAME XSTACK, 0, STACK
        PUBLIC InitTimer
        FUNCTION InitTimer,0203H
        ARGFRAME XSTACK, 0, STACK
        ARGFRAME IOVERLAY, 0, STATIC
        ARGFRAME DOVERLAY, 0, STATIC
        LOCFRAME ISTACK, 2, STACK
        PUBLIC Init_Beep
        FUNCTION Init_Beep,0203H
        ARGFRAME XSTACK, 0, STACK
        ARGFRAME IOVERLAY, 0, STATIC
        ARGFRAME DOVERLAY, 0, STATIC
        PUBLIC MotorDoProcessedData
        FUNCTION MotorDoProcessedData,0203H
        ARGFRAME XSTACK, 10, STACK
        ARGFRAME IOVERLAY, 0, STATIC
        ARGFRAME DOVERLAY, 0, STATIC
        PUBLIC MotorDoProcessedNi
        FUNCTION MotorDoProcessedNi,021203H
        ARGFRAME XSTACK, 10, STACK
        ARGFRAME IOVERLAY, 0, STATIC
        ARGFRAME DOVERLAY, 0, STATIC
        LOCFRAME XSTACK, 10, STACK
        PUBLIC MotorDoProcessedShun
        FUNCTION MotorDoProcessedShun,021203H
        ARGFRAME XSTACK, 10, STACK
        ARGFRAME IOVERLAY, 0, STATIC
        ARGFRAME DOVERLAY, 0, STATIC
        LOCFRAME XSTACK, 10, STACK
        PUBLIC MotorDoProcessedStop
        FUNCTION MotorDoProcessedStop,021203H
        ARGFRAME XSTACK, 0, STACK
        LOCFRAME ISTACK, 2, STACK
        PUBWEAK P0DIR
        PUBWEAK P0SEL
        PUBWEAK P1DIR
        PUBWEAK PERCFG
        PUBWEAK T1CC0H
        PUBWEAK T1CC0L
        PUBWEAK T1CTL
        PUBLIC UartInitPort0
        FUNCTION UartInitPort0,021203H
        ARGFRAME XSTACK, 9, STACK
        ARGFRAME IOVERLAY, 0, STATIC
        ARGFRAME DOVERLAY, 0, STATIC
        LOCFRAME ISTACK, 2, STACK
        LOCFRAME XSTACK, 29, STACK
        PUBWEAK _A_P0
        PUBWEAK _A_P1
        PUBWEAK __Constant_39000000
        PUBWEAK __Constant_42c80000
        PUBLIC controlBeer
        FUNCTION controlBeer,021203H
        ARGFRAME XSTACK, 0, STACK
        LOCFRAME XSTACK, 9, STACK
        PUBLIC controlMotor
        FUNCTION controlMotor,021203H
        ARGFRAME XSTACK, 0, STACK
        LOCFRAME XSTACK, 10, STACK
        PUBLIC controlRelay
        FUNCTION controlRelay,021203H
        ARGFRAME XSTACK, 23, STACK
        ARGFRAME IOVERLAY, 0, STATIC
        ARGFRAME DOVERLAY, 0, STATIC
        LOCFRAME ISTACK, 2, STACK
        PUBLIC funcForward
        PUBLIC funcReverse
        PUBLIC getFrame
        FUNCTION getFrame,021203H
        ARGFRAME XSTACK, 0, STACK
        LOCFRAME XSTACK, 16, STACK
        PUBLIC iMotorFlag
        PUBLIC iRelayState
        PUBLIC openLed
        FUNCTION openLed,0203H
        ARGFRAME XSTACK, 0, STACK
        ARGFRAME IOVERLAY, 0, STATIC
        ARGFRAME DOVERLAY, 0, STATIC
        LOCFRAME ISTACK, 2, STACK
        PUBLIC percentADCMQ
        PUBLIC percentVOL
        FUNCTION rxCB,021603H
        ARGFRAME XSTACK, 0, STACK
        LOCFRAME ISTACK, 2, STACK
        LOCFRAME XSTACK, 138, STACK
        PUBLIC startPwm
        FUNCTION startPwm,021203H
        ARGFRAME XSTACK, 0, STACK
        LOCFRAME ISTACK, 2, STACK
        PUBLIC ucSpeed
        
        CFI Names cfiNames0
        CFI StackFrame CFA_SP SP IDATA
        CFI StackFrame CFA_PSP16 PSP16 XDATA
        CFI StackFrame CFA_XSP16 XSP16 XDATA
        CFI StaticOverlayFrame CFA_IOVERLAY IOVERLAY
        CFI StaticOverlayFrame CFA_DOVERLAY DOVERLAY
        CFI Resource `PSW.CY`:1, `B.BR0`:1, `B.BR1`:1, `B.BR2`:1, `B.BR3`:1
        CFI Resource `B.BR4`:1, `B.BR5`:1, `B.BR6`:1, `B.BR7`:1, `VB.BR8`:1
        CFI Resource `VB.BR9`:1, `VB.BR10`:1, `VB.BR11`:1, `VB.BR12`:1
        CFI Resource `VB.BR13`:1, `VB.BR14`:1, `VB.BR15`:1, VB:8, B:8, A:8
        CFI Resource PSW:8, DPL0:8, DPH0:8, R0:8, R1:8, R2:8, R3:8, R4:8, R5:8
        CFI Resource R6:8, R7:8, V0:8, V1:8, V2:8, V3:8, V4:8, V5:8, V6:8, V7:8
        CFI Resource V8:8, V9:8, V10:8, V11:8, V12:8, V13:8, V14:8, V15:8, SP:8
        CFI Resource PSPH:8, PSPL:8, PSP16:16, XSPH:8, XSPL:8, XSP16:16
        CFI VirtualResource ?RET:24
        CFI Resource ?BRET_EXT:8
        CFI VirtualResource ?RET_HIGH:8, ?RET_LOW:8
        CFI ResourceParts PSP16 PSPH, PSPL
        CFI ResourceParts XSP16 XSPH, XSPL
        CFI ResourceParts ?RET ?BRET_EXT, ?RET_HIGH, ?RET_LOW
        CFI EndNames cfiNames0
        
        CFI Common cfiCommon0 Using cfiNames0
        CFI CodeAlign 1
        CFI DataAlign -1
        CFI ReturnAddress ?RET CODE
        CFI CFA_DOVERLAY Used
        CFI CFA_IOVERLAY Used
        CFI CFA_SP SP+-3
        CFI CFA_PSP16 PSP16+0
        CFI CFA_XSP16 XSP16+0
        CFI `PSW.CY` SameValue
        CFI `B.BR0` SameValue
        CFI `B.BR1` SameValue
        CFI `B.BR2` SameValue
        CFI `B.BR3` SameValue
        CFI `B.BR4` SameValue
        CFI `B.BR5` SameValue
        CFI `B.BR6` SameValue
        CFI `B.BR7` SameValue
        CFI `VB.BR8` SameValue
        CFI `VB.BR9` SameValue
        CFI `VB.BR10` SameValue
        CFI `VB.BR11` SameValue
        CFI `VB.BR12` SameValue
        CFI `VB.BR13` SameValue
        CFI `VB.BR14` SameValue
        CFI `VB.BR15` SameValue
        CFI VB SameValue
        CFI B Undefined
        CFI A Undefined
        CFI PSW SameValue
        CFI DPL0 SameValue
        CFI DPH0 SameValue
        CFI R0 Undefined
        CFI R1 Undefined
        CFI R2 Undefined
        CFI R3 Undefined
        CFI R4 Undefined
        CFI R5 Undefined
        CFI R6 SameValue
        CFI R7 SameValue
        CFI V0 SameValue
        CFI V1 SameValue
        CFI V2 SameValue
        CFI V3 SameValue
        CFI V4 SameValue
        CFI V5 SameValue
        CFI V6 SameValue
        CFI V7 SameValue
        CFI V8 SameValue
        CFI V9 SameValue
        CFI V10 SameValue
        CFI V11 SameValue
        CFI V12 SameValue
        CFI V13 SameValue
        CFI V14 SameValue
        CFI V15 SameValue
        CFI PSPH Undefined
        CFI PSPL Undefined
        CFI XSPH Undefined
        CFI XSPL Undefined
        CFI ?RET Concat
        CFI ?BRET_EXT Frame(CFA_SP, 3)
        CFI ?RET_HIGH Frame(CFA_SP, 2)
        CFI ?RET_LOW Frame(CFA_SP, 1)
        CFI EndCommon cfiCommon0
        
        
        CFI Common cfiCommon1 Using cfiNames0
        CFI CodeAlign 1
        CFI DataAlign -1
        CFI ReturnAddress ?RET CODE
        CFI CFA_DOVERLAY Used
        CFI CFA_IOVERLAY Used
        CFI CFA_SP SP+-2
        CFI CFA_PSP16 PSP16+0
        CFI CFA_XSP16 XSP16+0
        CFI `PSW.CY` SameValue
        CFI `B.BR0` SameValue
        CFI `B.BR1` SameValue
        CFI `B.BR2` SameValue
        CFI `B.BR3` SameValue
        CFI `B.BR4` SameValue
        CFI `B.BR5` SameValue
        CFI `B.BR6` SameValue
        CFI `B.BR7` SameValue
        CFI `VB.BR8` SameValue
        CFI `VB.BR9` SameValue
        CFI `VB.BR10` SameValue
        CFI `VB.BR11` SameValue
        CFI `VB.BR12` SameValue
        CFI `VB.BR13` SameValue
        CFI `VB.BR14` SameValue
        CFI `VB.BR15` SameValue
        CFI VB SameValue
        CFI B SameValue
        CFI A SameValue
        CFI PSW SameValue
        CFI DPL0 SameValue
        CFI DPH0 SameValue
        CFI R0 SameValue
        CFI R1 SameValue
        CFI R2 SameValue
        CFI R3 SameValue
        CFI R4 SameValue
        CFI R5 SameValue
        CFI R6 SameValue
        CFI R7 SameValue
        CFI V0 SameValue
        CFI V1 SameValue
        CFI V2 SameValue
        CFI V3 SameValue
        CFI V4 SameValue
        CFI V5 SameValue
        CFI V6 SameValue
        CFI V7 SameValue
        CFI V8 SameValue
        CFI V9 SameValue
        CFI V10 SameValue
        CFI V11 SameValue
        CFI V12 SameValue
        CFI V13 SameValue
        CFI V14 SameValue
        CFI V15 SameValue
        CFI PSPH Undefined
        CFI PSPL Undefined
        CFI XSPH Undefined
        CFI XSPL Undefined
        CFI ?RET Concat
        CFI ?BRET_EXT SameValue
        CFI ?RET_HIGH Frame(CFA_SP, 2)
        CFI ?RET_LOW Frame(CFA_SP, 1)
        CFI EndCommon cfiCommon1
        
HalUARTOpen         SYMBOL "HalUARTOpen"
HalUARTRead         SYMBOL "HalUARTRead"
Hal_UART_RxBufLen   SYMBOL "Hal_UART_RxBufLen"
afRegister          SYMBOL "afRegister"
RegisterForKeys     SYMBOL "RegisterForKeys"
HalLcdWriteString   SYMBOL "HalLcdWriteString"
ZDO_RegisterForZDOMsg SYMBOL "ZDO_RegisterForZDOMsg"
osal_msg_receive    SYMBOL "osal_msg_receive"
osal_start_timerEx  SYMBOL "osal_start_timerEx"
osal_msg_deallocate SYMBOL "osal_msg_deallocate"
ZDO_ParseEPListRsp  SYMBOL "ZDO_ParseEPListRsp"
HalLedSet           SYMBOL "HalLedSet"
osal_mem_free       SYMBOL "osal_mem_free"
NLME_GetShortAddr   SYMBOL "NLME_GetShortAddr"
ZDP_EndDeviceBindReq SYMBOL "ZDP_EndDeviceBindReq"
ZDP_MatchDescReq    SYMBOL "ZDP_MatchDescReq"
HalUARTWrite        SYMBOL "HalUARTWrite"
Delay_ms            SYMBOL "Delay_ms"
osal_rand           SYMBOL "osal_rand"
memset              SYMBOL "memset"
DHT11_TEST          SYMBOL "DHT11_TEST"
LCD_P16x16Ch        SYMBOL "LCD_P16x16Ch"
LCD_P8x16Str        SYMBOL "LCD_P8x16Str"
osal_strlen         SYMBOL "osal_strlen"
AF_DataRequest      SYMBOL "AF_DataRequest"
Onboard_wait        SYMBOL "Onboard_wait"
HalAdcRead          SYMBOL "HalAdcRead"
??AF_DataRequest?relay SYMBOL "?relay", AF_DataRequest
??DHT11_TEST?relay  SYMBOL "?relay", DHT11_TEST
??Delay_ms?relay    SYMBOL "?relay", Delay_ms
??HalAdcRead?relay  SYMBOL "?relay", HalAdcRead
??HalLcdWriteString?relay SYMBOL "?relay", HalLcdWriteString
??HalLedSet?relay   SYMBOL "?relay", HalLedSet
??HalUARTOpen?relay SYMBOL "?relay", HalUARTOpen
??HalUARTRead?relay SYMBOL "?relay", HalUARTRead
??HalUARTWrite?relay SYMBOL "?relay", HalUARTWrite
??Hal_UART_RxBufLen?relay SYMBOL "?relay", Hal_UART_RxBufLen
??LCD_P16x16Ch?relay SYMBOL "?relay", LCD_P16x16Ch
??LCD_P8x16Str?relay SYMBOL "?relay", LCD_P8x16Str
??NLME_GetShortAddr?relay SYMBOL "?relay", NLME_GetShortAddr
??Onboard_wait?relay SYMBOL "?relay", Onboard_wait
??RegisterForKeys?relay SYMBOL "?relay", RegisterForKeys
??ZDO_ParseEPListRsp?relay SYMBOL "?relay", ZDO_ParseEPListRsp
??ZDO_RegisterForZDOMsg?relay SYMBOL "?relay", ZDO_RegisterForZDOMsg
??ZDP_EndDeviceBindReq?relay SYMBOL "?relay", ZDP_EndDeviceBindReq
??ZDP_MatchDescReq?relay SYMBOL "?relay", ZDP_MatchDescReq
??afRegister?relay  SYMBOL "?relay", afRegister
??memset?relay      SYMBOL "?relay", memset
??osal_mem_free?relay SYMBOL "?relay", osal_mem_free
??osal_msg_deallocate?relay SYMBOL "?relay", osal_msg_deallocate
??osal_msg_receive?relay SYMBOL "?relay", osal_msg_receive
??osal_rand?relay   SYMBOL "?relay", osal_rand
??osal_start_timerEx?relay SYMBOL "?relay", osal_start_timerEx
??osal_strlen?relay SYMBOL "?relay", osal_strlen
GenericApp_Init     SYMBOL "GenericApp_Init"
??GenericApp_Init?relay SYMBOL "?relay", GenericApp_Init
GenericApp_ProcessEvent SYMBOL "GenericApp_ProcessEvent"
??GenericApp_ProcessEvent?relay SYMBOL "?relay", GenericApp_ProcessEvent
GetADCMQ            SYMBOL "GetADCMQ"
??GetADCMQ?relay    SYMBOL "?relay", GetADCMQ
HCSR501             SYMBOL "HCSR501"
??HCSR501?relay     SYMBOL "?relay", HCSR501
InitIO              SYMBOL "InitIO"
??InitIO?relay      SYMBOL "?relay", InitIO
InitTimer           SYMBOL "InitTimer"
??InitTimer?relay   SYMBOL "?relay", InitTimer
Init_Beep           SYMBOL "Init_Beep"
??Init_Beep?relay   SYMBOL "?relay", Init_Beep
MotorDoProcessedData SYMBOL "MotorDoProcessedData"
??MotorDoProcessedData?relay SYMBOL "?relay", MotorDoProcessedData
MotorDoProcessedNi  SYMBOL "MotorDoProcessedNi"
??MotorDoProcessedNi?relay SYMBOL "?relay", MotorDoProcessedNi
MotorDoProcessedShun SYMBOL "MotorDoProcessedShun"
??MotorDoProcessedShun?relay SYMBOL "?relay", MotorDoProcessedShun
MotorDoProcessedStop SYMBOL "MotorDoProcessedStop"
??MotorDoProcessedStop?relay SYMBOL "?relay", MotorDoProcessedStop
UartInitPort0       SYMBOL "UartInitPort0"
??UartInitPort0?relay SYMBOL "?relay", UartInitPort0
controlBeer         SYMBOL "controlBeer"
??controlBeer?relay SYMBOL "?relay", controlBeer
controlMotor        SYMBOL "controlMotor"
??controlMotor?relay SYMBOL "?relay", controlMotor
controlRelay        SYMBOL "controlRelay"
??controlRelay?relay SYMBOL "?relay", controlRelay
getFrame            SYMBOL "getFrame"
??getFrame?relay    SYMBOL "?relay", getFrame
openLed             SYMBOL "openLed"
??openLed?relay     SYMBOL "?relay", openLed
startPwm            SYMBOL "startPwm"
??startPwm?relay    SYMBOL "?relay", startPwm

        EXTERN HalUARTOpen
        FUNCTION HalUARTOpen,0202H
        ARGFRAME ISTACK, 2, STACK
        ARGFRAME PSTACK, 0, STACK
        ARGFRAME XSTACK, 29, STACK
        ARGFRAME IOVERLAY, 0, STATIC
        ARGFRAME DOVERLAY, 0, STATIC
        EXTERN HalUARTRead
        FUNCTION HalUARTRead,0202H
        ARGFRAME ISTACK, 0, STACK
        ARGFRAME PSTACK, 0, STACK
        ARGFRAME XSTACK, 138, STACK
        ARGFRAME IOVERLAY, 0, STATIC
        ARGFRAME DOVERLAY, 0, STATIC
        EXTERN Hal_UART_RxBufLen
        FUNCTION Hal_UART_RxBufLen,0202H
        ARGFRAME ISTACK, 0, STACK
        ARGFRAME PSTACK, 0, STACK
        ARGFRAME XSTACK, 138, STACK
        ARGFRAME IOVERLAY, 0, STATIC
        ARGFRAME DOVERLAY, 0, STATIC
        EXTERN afRegister
        FUNCTION afRegister,0202H
        ARGFRAME ISTACK, 0, STACK
        ARGFRAME PSTACK, 0, STACK
        ARGFRAME XSTACK, 9, STACK
        ARGFRAME IOVERLAY, 0, STATIC
        ARGFRAME DOVERLAY, 0, STATIC
        EXTERN RegisterForKeys
        FUNCTION RegisterForKeys,0202H
        ARGFRAME ISTACK, 0, STACK
        ARGFRAME PSTACK, 0, STACK
        ARGFRAME XSTACK, 9, STACK
        ARGFRAME IOVERLAY, 0, STATIC
        ARGFRAME DOVERLAY, 0, STATIC
        EXTERN HalLcdWriteString
        FUNCTION HalLcdWriteString,0202H
        ARGFRAME ISTACK, 0, STACK
        ARGFRAME PSTACK, 0, STACK
        ARGFRAME XSTACK, 9, STACK
        ARGFRAME IOVERLAY, 0, STATIC
        ARGFRAME DOVERLAY, 0, STATIC
        EXTERN ZDO_RegisterForZDOMsg
        FUNCTION ZDO_RegisterForZDOMsg,0202H
        ARGFRAME ISTACK, 0, STACK
        ARGFRAME PSTACK, 0, STACK
        ARGFRAME XSTACK, 9, STACK
        ARGFRAME IOVERLAY, 0, STATIC
        ARGFRAME DOVERLAY, 0, STATIC
        EXTERN osal_msg_receive
        FUNCTION osal_msg_receive,0202H
        ARGFRAME ISTACK, 0, STACK
        ARGFRAME PSTACK, 0, STACK
        ARGFRAME XSTACK, 23, STACK
        ARGFRAME IOVERLAY, 0, STATIC
        ARGFRAME DOVERLAY, 0, STATIC
        EXTERN osal_start_timerEx
        FUNCTION osal_start_timerEx,0202H
        ARGFRAME ISTACK, 0, STACK
        ARGFRAME PSTACK, 0, STACK
        ARGFRAME XSTACK, 23, STACK
        ARGFRAME IOVERLAY, 0, STATIC
        ARGFRAME DOVERLAY, 0, STATIC
        EXTERN osal_msg_deallocate
        FUNCTION osal_msg_deallocate,0202H
        ARGFRAME ISTACK, 0, STACK
        ARGFRAME PSTACK, 0, STACK
        ARGFRAME XSTACK, 23, STACK
        ARGFRAME IOVERLAY, 0, STATIC
        ARGFRAME DOVERLAY, 0, STATIC
        EXTERN ZDO_ParseEPListRsp
        FUNCTION ZDO_ParseEPListRsp,0202H
        ARGFRAME ISTACK, 0, STACK
        ARGFRAME PSTACK, 0, STACK
        ARGFRAME XSTACK, 23, STACK
        ARGFRAME IOVERLAY, 0, STATIC
        ARGFRAME DOVERLAY, 0, STATIC
        EXTERN HalLedSet
        FUNCTION HalLedSet,0202H
        ARGFRAME ISTACK, 0, STACK
        ARGFRAME PSTACK, 0, STACK
        ARGFRAME XSTACK, 23, STACK
        ARGFRAME IOVERLAY, 0, STATIC
        ARGFRAME DOVERLAY, 0, STATIC
        EXTERN osal_mem_free
        FUNCTION osal_mem_free,0202H
        ARGFRAME ISTACK, 0, STACK
        ARGFRAME PSTACK, 0, STACK
        ARGFRAME XSTACK, 23, STACK
        ARGFRAME IOVERLAY, 0, STATIC
        ARGFRAME DOVERLAY, 0, STATIC
        EXTERN NLME_GetShortAddr
        FUNCTION NLME_GetShortAddr,0202H
        ARGFRAME ISTACK, 0, STACK
        ARGFRAME PSTACK, 0, STACK
        ARGFRAME XSTACK, 23, STACK
        ARGFRAME IOVERLAY, 0, STATIC
        ARGFRAME DOVERLAY, 0, STATIC
        EXTERN ZDP_EndDeviceBindReq
        FUNCTION ZDP_EndDeviceBindReq,0202H
        ARGFRAME ISTACK, 0, STACK
        ARGFRAME PSTACK, 0, STACK
        ARGFRAME XSTACK, 32, STACK
        ARGFRAME IOVERLAY, 0, STATIC
        ARGFRAME DOVERLAY, 0, STATIC
        EXTERN ZDP_MatchDescReq
        FUNCTION ZDP_MatchDescReq,0202H
        ARGFRAME ISTACK, 0, STACK
        ARGFRAME PSTACK, 0, STACK
        ARGFRAME XSTACK, 31, STACK
        ARGFRAME IOVERLAY, 0, STATIC
        ARGFRAME DOVERLAY, 0, STATIC
        EXTERN HalUARTWrite
        FUNCTION HalUARTWrite,0202H
        ARGFRAME ISTACK, 0, STACK
        ARGFRAME PSTACK, 0, STACK
        ARGFRAME XSTACK, 82, STACK
        ARGFRAME IOVERLAY, 0, STATIC
        ARGFRAME DOVERLAY, 0, STATIC
        EXTERN Delay_ms
        FUNCTION Delay_ms,0202H
        ARGFRAME ISTACK, 0, STACK
        ARGFRAME PSTACK, 0, STACK
        ARGFRAME XSTACK, 23, STACK
        ARGFRAME IOVERLAY, 0, STATIC
        ARGFRAME DOVERLAY, 0, STATIC
        EXTERN osal_rand
        FUNCTION osal_rand,0202H
        ARGFRAME ISTACK, 0, STACK
        ARGFRAME PSTACK, 0, STACK
        ARGFRAME XSTACK, 23, STACK
        ARGFRAME IOVERLAY, 0, STATIC
        ARGFRAME DOVERLAY, 0, STATIC
        EXTERN memset
        FUNCTION memset,010202H
        ARGFRAME ISTACK, 0, STACK
        ARGFRAME PSTACK, 0, STACK
        ARGFRAME XSTACK, 84, STACK
        ARGFRAME IOVERLAY, 0, STATIC
        ARGFRAME DOVERLAY, 0, STATIC
        EXTERN DHT11_TEST
        FUNCTION DHT11_TEST,0202H
        ARGFRAME ISTACK, 0, STACK
        ARGFRAME PSTACK, 0, STACK
        ARGFRAME XSTACK, 82, STACK
        ARGFRAME IOVERLAY, 0, STATIC
        ARGFRAME DOVERLAY, 0, STATIC
        EXTERN LCD_P16x16Ch
        FUNCTION LCD_P16x16Ch,0202H
        ARGFRAME ISTACK, 0, STACK
        ARGFRAME PSTACK, 0, STACK
        ARGFRAME XSTACK, 82, STACK
        ARGFRAME IOVERLAY, 0, STATIC
        ARGFRAME DOVERLAY, 0, STATIC
        EXTERN LCD_P8x16Str
        FUNCTION LCD_P8x16Str,0202H
        ARGFRAME ISTACK, 0, STACK
        ARGFRAME PSTACK, 0, STACK
        ARGFRAME XSTACK, 82, STACK
        ARGFRAME IOVERLAY, 0, STATIC
        ARGFRAME DOVERLAY, 0, STATIC
        EXTERN osal_strlen
        FUNCTION osal_strlen,0202H
        ARGFRAME ISTACK, 0, STACK
        ARGFRAME PSTACK, 0, STACK
        ARGFRAME XSTACK, 87, STACK
        ARGFRAME IOVERLAY, 0, STATIC
        ARGFRAME DOVERLAY, 0, STATIC
        EXTERN AF_DataRequest
        FUNCTION AF_DataRequest,0202H
        ARGFRAME ISTACK, 0, STACK
        ARGFRAME PSTACK, 0, STACK
        ARGFRAME XSTACK, 91, STACK
        ARGFRAME IOVERLAY, 0, STATIC
        ARGFRAME DOVERLAY, 0, STATIC
        EXTERN Onboard_wait
        FUNCTION Onboard_wait,0202H
        ARGFRAME ISTACK, 0, STACK
        ARGFRAME PSTACK, 0, STACK
        ARGFRAME XSTACK, 9, STACK
        ARGFRAME IOVERLAY, 0, STATIC
        ARGFRAME DOVERLAY, 0, STATIC
        EXTERN HalAdcRead
        FUNCTION HalAdcRead,0202H
        ARGFRAME ISTACK, 0, STACK
        ARGFRAME PSTACK, 0, STACK
        ARGFRAME XSTACK, 16, STACK
        ARGFRAME IOVERLAY, 0, STATIC
        ARGFRAME DOVERLAY, 0, STATIC
        EXTERN ??AF_DataRequest?relay
        FUNCTION ??AF_DataRequest?relay,00H
        EXTERN ??DHT11_TEST?relay
        FUNCTION ??DHT11_TEST?relay,00H
        EXTERN ??Delay_ms?relay
        FUNCTION ??Delay_ms?relay,00H
        EXTERN ??HalAdcRead?relay
        FUNCTION ??HalAdcRead?relay,00H
        EXTERN ??HalLcdWriteString?relay
        FUNCTION ??HalLcdWriteString?relay,00H
        EXTERN ??HalLedSet?relay
        FUNCTION ??HalLedSet?relay,00H
        EXTERN ??HalUARTOpen?relay
        FUNCTION ??HalUARTOpen?relay,00H
        EXTERN ??HalUARTRead?relay
        FUNCTION ??HalUARTRead?relay,00H
        EXTERN ??HalUARTWrite?relay
        FUNCTION ??HalUARTWrite?relay,00H
        EXTERN ??Hal_UART_RxBufLen?relay
        FUNCTION ??Hal_UART_RxBufLen?relay,00H
        EXTERN ??LCD_P16x16Ch?relay
        FUNCTION ??LCD_P16x16Ch?relay,00H
        EXTERN ??LCD_P8x16Str?relay
        FUNCTION ??LCD_P8x16Str?relay,00H
        EXTERN ??NLME_GetShortAddr?relay
        FUNCTION ??NLME_GetShortAddr?relay,00H
        EXTERN ??Onboard_wait?relay
        FUNCTION ??Onboard_wait?relay,00H
        EXTERN ??RegisterForKeys?relay
        FUNCTION ??RegisterForKeys?relay,00H
        EXTERN ??ZDO_ParseEPListRsp?relay
        FUNCTION ??ZDO_ParseEPListRsp?relay,00H
        EXTERN ??ZDO_RegisterForZDOMsg?relay
        FUNCTION ??ZDO_RegisterForZDOMsg?relay,00H
        EXTERN ??ZDP_EndDeviceBindReq?relay
        FUNCTION ??ZDP_EndDeviceBindReq?relay,00H
        EXTERN ??ZDP_MatchDescReq?relay
        FUNCTION ??ZDP_MatchDescReq?relay,00H
        EXTERN ??afRegister?relay
        FUNCTION ??afRegister?relay,00H
        EXTERN ??memset?relay
        FUNCTION ??memset?relay,00H
        EXTERN ??osal_mem_free?relay
        FUNCTION ??osal_mem_free?relay,00H
        EXTERN ??osal_msg_deallocate?relay
        FUNCTION ??osal_msg_deallocate?relay,00H
        EXTERN ??osal_msg_receive?relay
        FUNCTION ??osal_msg_receive?relay,00H
        EXTERN ??osal_rand?relay
        FUNCTION ??osal_rand?relay,00H
        EXTERN ??osal_start_timerEx?relay
        FUNCTION ??osal_start_timerEx?relay,00H
        EXTERN ??osal_strlen?relay
        FUNCTION ??osal_strlen?relay,00H

// D:\test_nb\代码\多终端\Projects\zstack\Samples\GenericApp\Source\enddevice.c
//    1 /******************************************************************************
//    2   Filename:       enddevice.c（终端设备）
//    3   Revised:        $Date: 2012-03-07 01:04:58 -0800 (Wed, 07 Mar 2012) $
//    4   Revision:       $Revision: 29656 $
//    5 
//    6   Description:    Generic Application (no Profile).
//    7 
//    8 
//    9   Copyright 2004-2012 Texas Instruments Incorporated. All rights reserved.
//   10 
//   11   IMPORTANT: Your use of this Software is limited to those specific rights
//   12   granted under the terms of a software license agreement between the user
//   13   who downloaded the software, his/her employer (which must be your employer)
//   14   and Texas Instruments Incorporated (the "License"). You may not use this
//   15   Software unless you agree to abide by the terms of the License. The License
//   16   limits your use, and you acknowledge, that the Software may not be modified,
//   17   copied or distributed unless embedded on a Texas Instruments microcontroller
//   18   or used solely and exclusively in conjunction with a Texas Instruments radio
//   19   frequency transceiver, which is integrated into your product. Other than for
//   20   the foregoing purpose, you may not use, reproduce, copy, prepare derivative
//   21   works of, modify, distribute, perform, display or sell this Software and/or
//   22   its documentation for any purpose.
//   23 
//   24   YOU FURTHER ACKNOWLEDGE AND AGREE THAT THE SOFTWARE AND DOCUMENTATION ARE
//   25   PROVIDED 揂S IS?WITHOUT WARRANTY OF ANY KIND, EITHER EXPRESS OR IMPLIED,
//   26   INCLUDING WITHOUT LIMITATION, ANY WARRANTY OF MERCHANTABILITY, TITLE,
//   27   NON-INFRINGEMENT AND FITNESS FOR A PARTICULAR PURPOSE. IN NO EVENT SHALL
//   28   TEXAS INSTRUMENTS OR ITS LICENSORS BE LIABLE OR OBLIGATED UNDER CONTRACT,
//   29   NEGLIGENCE, STRICT LIABILITY, CONTRIBUTION, BREACH OF WARRANTY, OR OTHER
//   30   LEGAL EQUITABLE THEORY ANY DIRECT OR INDIRECT DAMAGES OR EXPENSES
//   31   INCLUDING BUT NOT LIMITED TO ANY INCIDENTAL, SPECIAL, INDIRECT, PUNITIVE
//   32   OR CONSEQUENTIAL DAMAGES, LOST PROFITS OR LOST DATA, COST OF PROCUREMENT
//   33   OF SUBSTITUTE GOODS, TECHNOLOGY, SERVICES, OR ANY CLAIMS BY THIRD PARTIES
//   34   (INCLUDING BUT NOT LIMITED TO ANY DEFENSE THEREOF), OR OTHER SIMILAR COSTS.
//   35 
//   36   Should you have any questions regarding your right to use this Software,
//   37   contact Texas Instruments Incorporated at www.TI.com.
//   38 ******************************************************************************/
//   39 
//   40 /*********************************************************************
//   41   This application isn't intended to do anything useful, it is
//   42   intended to be a simple example of an application's structure.
//   43 
//   44   This application sends "Hello World" to another "Generic"
//   45   application every 5 seconds.  The application will also
//   46   receives "Hello World" packets.
//   47 
//   48   The "Hello World" messages are sent/received as MSG type message.
//   49 
//   50   This applications doesn't have a profile, so it handles everything
//   51   directly - itself.
//   52 
//   53   Key control:
//   54     SW1:
//   55     SW2:  initiates end device binding
//   56     SW3:
//   57     SW4:  initiates a match description request
//   58 *********************************************************************/
//   59 
//   60 /*********************************************************************
//   61  * INCLUDES
//   62  */
//   63 #include "OSAL.h"
//   64 #include "AF.h"
//   65 #include "ZDApp.h"
//   66 #include "ZDObject.h"
//   67 #include "ZDProfile.h"
//   68 
//   69 #include "GenericApp.h"
//   70 #include "DebugTrace.h"
//   71 #if !defined( WIN32 )
//   72   #include "OnBoard.h"

        ASEGN SFR_AN:DATA:NOROOT,080H
// union <unnamed> volatile __sfr _A_P0
_A_P0:
        DATA8
        DS 1

        ASEGN SFR_AN:DATA:NOROOT,090H
// union <unnamed> volatile __sfr _A_P1
_A_P1:
        DATA8
        DS 1

        ASEGN SFR_AN:DATA:NOROOT,0daH
// unsigned char volatile __sfr T1CC0L
T1CC0L:
        DATA8
        DS 1

        ASEGN SFR_AN:DATA:NOROOT,0dbH
// unsigned char volatile __sfr T1CC0H
T1CC0H:
        DATA8
        DS 1

        ASEGN SFR_AN:DATA:NOROOT,0e4H
// unsigned char volatile __sfr T1CTL
T1CTL:
        DATA8
        DS 1

        ASEGN SFR_AN:DATA:NOROOT,0f1H
// unsigned char volatile __sfr PERCFG
PERCFG:
        DATA8
        DS 1

        ASEGN SFR_AN:DATA:NOROOT,0f3H
// unsigned char volatile __sfr P0SEL
P0SEL:
        DATA8
        DS 1

        ASEGN SFR_AN:DATA:NOROOT,0fdH
// unsigned char volatile __sfr P0DIR
P0DIR:
        DATA8
        DS 1

        ASEGN SFR_AN:DATA:NOROOT,0feH
// unsigned char volatile __sfr P1DIR
P1DIR:
        DATA8
        DS 1
//   73 #endif
//   74 
//   75 /* HAL */
//   76 #include "delay.h"
//   77 #include "hal_lcd.h"
//   78 #include "hal_led.h"
//   79 #include "hal_key.h"
//   80 #include "MT_UART.h"
//   81 #include "MT_APP.h"
//   82 #include "MT.h"
//   83 #include "DHT11.h"
//   84 #include "stdio.h"
//   85 #include "string.h"
//   86 #include "IOT.h"
//   87 #include "hal_adc.h"
//   88 #include <stdio.h>
//   89 #include <string.h>
//   90 
//   91 extern void LCD_P8x16Str(unsigned char x, unsigned char y,unsigned char ch[]);
//   92 extern void HalLcdDisplayPercentBar( char *title, uint8 value );
//   93 extern void LCD_P16x16Ch(unsigned char x, unsigned char y, unsigned char N);
//   94 void controlMotor(unsigned char* v_MessageData);//!< 控制电机
//   95 
//   96 unsigned char getFrame(void);
//   97 unsigned int openLed(unsigned char* v_MessageData);//!< 控制led灯
//   98 /* RTOS */
//   99 #if defined( IAR_ARMCM3_LM )
//  100 #include "RTOS_App.h"
//  101 #endif  
//  102 
//  103 /*********************************************************************
//  104  * MACROS
//  105  */
//  106 
//  107 #define TIMER_START() T1CTL|=0X03   //!< 启动定时器
//  108 #define TIMER_STOP() T1CTL&=~0X03   //!< 停止定时器
//  109 
//  110 void Init_Beep(void);
//  111 void InitTimer(void);
//  112 void startPwm(void);
//  113 
//  114 void controlBeer(unsigned char* v_MsgData);
//  115 
//  116 #define BEEP_PIN     P0_7  //!< 定义P1.7口为蜂鸣器的输出端
//  117 
//  118 
//  119 
//  120 /*********************************************************************
//  121  * CONSTANTS
//  122  */
//  123 
//  124 /*********************************************************************
//  125  * TYPEDEFS
//  126  */
//  127 
//  128 /*********************************************************************
//  129  * GLOBAL VARIABLES
//  130  */
//  131 // This list should be filled with Application specific Cluster IDs.

        RSEG XDATA_ROM_C:CONST:REORDER:NOROOT(0)
        DATA8
//  132 const cId_t GenericApp_ClusterList[GENERICAPP_MAX_CLUSTERS] =
GenericApp_ClusterList:
        DATA16
        DW 1
        DW 0
        DW 0
        DW 0
//  133 {
//  134   GENERICAPP_CLUSTERID
//  135 };
//  136 

        RSEG XDATA_ROM_C:CONST:REORDER:NOROOT(0)
        DATA8
//  137 const SimpleDescriptionFormat_t GenericApp_SimpleDesc =
GenericApp_SimpleDesc:
        DB 10
        DATA16
        DW 3844
        DW 1
        DATA8
        DB 0
        DB 4
        DATA16
        DW GenericApp_ClusterList
        DATA8
        DB 4
        DATA16
        DW GenericApp_ClusterList
//  138 {
//  139   GENERICAPP_ENDPOINT,              //  int Endpoint;
//  140   GENERICAPP_PROFID,                //  uint16 AppProfId[2];
//  141   GENERICAPP_DEVICEID,              //  uint16 AppDeviceId[2];
//  142   GENERICAPP_DEVICE_VERSION,        //  int   AppDevVer:4;
//  143   GENERICAPP_FLAGS,                 //  int   AppFlags:4;
//  144   GENERICAPP_MAX_CLUSTERS,          //  byte  AppNumInClusters;
//  145   (cId_t *)GenericApp_ClusterList,  //  byte *pAppInClusterList;
//  146   GENERICAPP_MAX_CLUSTERS,          //  byte  AppNumInClusters;
//  147   (cId_t *)GenericApp_ClusterList   //  byte *pAppInClusterList;
//  148 };
//  149 
//  150 // This is the Endpoint/Interface description.  It is defined here, but
//  151 // filled-in in GenericApp_Init().  Another way to go would be to fill
//  152 // in the structure here and make it a "const" (in code space).  The
//  153 // way it's defined in this sample app it is define in RAM.

        RSEG XDATA_Z:XDATA:NOROOT(0)
        DATA8
//  154 endPointDesc_t GenericApp_epDesc;
GenericApp_epDesc:
        DS 6
        REQUIRE __INIT_XDATA_Z
//  155 
//  156 #define RELAY P1_5       //!< 定义P0.6定义为输出口(继电器控制开关)
//  157 
//  158 /*********************************************************************
//  159  * EXTERNAL VARIABLES
//  160  */
//  161 
//  162 
//  163 /*********************************************************************
//  164  * EXTERNAL FUNCTIONS
//  165  */
//  166 #define FRAME P1_6
//  167 /*********************************************************************
//  168  * LOCAL VARIABLES
//  169  */

        RSEG XDATA_Z:XDATA:NOROOT(0)
        DATA8
//  170 byte GenericApp_TaskID;   // Task ID for internal task/event processing
GenericApp_TaskID:
        DS 1
        REQUIRE __INIT_XDATA_Z
//  171                           // This variable will be received when
//  172                           // GenericApp_Init() is called.

        RSEG XDATA_Z:XDATA:NOROOT(0)
        DATA8
//  173 devStates_t GenericApp_NwkState;
GenericApp_NwkState:
        DS 1
        REQUIRE __INIT_XDATA_Z
//  174 
//  175 

        RSEG XDATA_Z:XDATA:NOROOT(0)
        DATA8
//  176 byte GenericApp_TransID;  // This is the unique message ID (counter)
GenericApp_TransID:
        DS 1
        REQUIRE __INIT_XDATA_Z
//  177 

        RSEG XDATA_Z:XDATA:NOROOT(0)
        DATA8
//  178 afAddrType_t GenericApp_DstAddr;
GenericApp_DstAddr:
        DS 12
        REQUIRE __INIT_XDATA_Z
//  179 
//  180 #define DATA_PIN P0_6            //定义P0.6口为传感器的输入端
//  181 
//  182 //byte sensorID = '1';
//  183 
//  184 //!< 定义步进电机连接端口
//  185 #define A P0_4 //!< 连接 1N1
//  186 #define B P0_5 //!< 连接 1N2
//  187 #define C P0_6 //!< 连接 1N3
//  188 #define D P0_7 //!< 连接 1N4

        RSEG XDATA_I:XDATA:NOROOT(0)
//  189 uchar funcForward[4] = {0x80,0x40,0x20,0x10};//!< 正转 电机导通相序 D-C-B-A
funcForward:
        DATA32
        DS 4
        REQUIRE `?<Initializer for funcForward>`
        REQUIRE __INIT_XDATA_I

        RSEG XDATA_I:XDATA:NOROOT(0)
//  190 uchar funcReverse[4] = {0x10,0x20,0x40,0x80};//!< 反转 电机导通相序 A-B-C-D
funcReverse:
        DATA32
        DS 4
        REQUIRE `?<Initializer for funcReverse>`
        REQUIRE __INIT_XDATA_I
//  191 

        RSEG XDATA_Z:XDATA:NOROOT(0)
        DATA8
//  192 uchar ucSpeed;
ucSpeed:
        DS 1
        REQUIRE __INIT_XDATA_Z
//  193 
//  194 void MotorDoProcessedData(uchar v_ucdata); //!< 点击转动处理过程
//  195 //!< 顺时针转动
//  196 void MotorDoProcessedShun(uchar Speed);
//  197 //!< 逆时针转动
//  198 void MotorDoProcessedNi(uchar Speed);
//  199 //停止转动
//  200 void MotorDoProcessedStop(void);
//  201 
//  202 void InitIO(void);//!< IO引脚初始化工作
//  203 /*********************************************************************
//  204  * LOCAL FUNCTIONS
//  205  */
//  206 static void GenericApp_ProcessZDOMsgs( zdoIncomingMsg_t *inMsg );
//  207 static void GenericApp_HandleKeys( byte shift, byte keys );
//  208 static void GenericApp_MessageMSGCB( afIncomingMSGPacket_t *pckt );
//  209 static void GenericApp_SendTheMessage( void );
//  210 void UartInitPort0(void );
//  211 static void rxCB(uint8 port,uint8 event);
//  212 unsigned char GetADCMQ(void);
//  213 unsigned char GetADCVol(void);
//  214 int controlRelay(unsigned char* v_MessageData);
//  215 
//  216 int HCSR501(void);
//  217 
//  218 #if defined( IAR_ARMCM3_LM )
//  219 static void GenericApp_ProcessRtosMessage( void );
//  220 #endif
//  221 
//  222 /*********************************************************************
//  223  * NETWORK LAYER CALLBACKS
//  224  */
//  225 
//  226 /*********************************************************************
//  227  * PUBLIC FUNCTIONS
//  228  */
//  229 
//  230 

        RSEG BANKED_CODE:CODE:NOROOT(0)
//  231 void UartInitPort0(void )
UartInitPort0:
        CFI Block cfiBlock0 Using cfiCommon0
        CFI Function UartInitPort0
        CODE
//  232 {
        FUNCALL UartInitPort0, HalUARTOpen
        LOCFRAME ISTACK, 2, STACK
        LOCFRAME PSTACK, 0, STACK
        LOCFRAME XSTACK, 29, STACK
        LOCFRAME IOVERLAY, 0, STATIC
        LOCFRAME DOVERLAY, 0, STATIC
        ARGFRAME ISTACK, 2, STACK
        ARGFRAME PSTACK, 0, STACK
        ARGFRAME XSTACK, 29, STACK
        ARGFRAME IOVERLAY, 0, STATIC
        ARGFRAME DOVERLAY, 0, STATIC
        PUSH    DPL
        CFI DPL0 Frame(CFA_SP, 4)
        CFI CFA_SP SP+-4
        PUSH    DPH
        CFI DPH0 Frame(CFA_SP, 5)
        CFI CFA_SP SP+-5
        ; Saved register size: 2
        ; Auto size: 29
        MOV     A,#-0x1d
        LCALL   ?ALLOC_XSTACK8
        CFI CFA_XSP16 add(XSP16, 29)
//  233 
//  234           halUARTCfg_t uartConfig;//顶一个串口结构体
//  235           uartConfig.configured             =TRUE;//串口配置为真
        MOV     DPL,?XSP + 0
        MOV     DPH,?XSP + 1
        MOV     A,#0x1
        MOVX    @DPTR,A
//  236           uartConfig.baudRate               =HAL_UART_BR_115200;//波特率为115200
        LCALL   ?XSTACK_DISP0_8
        MOV     A,#0x4
        MOVX    @DPTR,A
//  237           uartConfig.flowControl            =FALSE;//流控制为假
        MOV     A,#0x2
        LCALL   ?XSTACK_DISP0_8
        CLR     A
        MOVX    @DPTR,A
//  238           uartConfig.callBackFunc       =    rxCB;
        MOV     A,#0x1b
        LCALL   ?XSTACK_DISP0_8
        MOV     A,#??rxCB?relay & 0xff
        MOVX    @DPTR,A
        INC     DPTR
        MOV     A,#(??rxCB?relay >> 8) & 0xff
        LCALL   ?Subroutine5 & 0xFFFF
//  239           HalUARTOpen(HAL_UART_PORT_0,&uartConfig);// 打开串口0
??CrossCallReturnLabel_2:
        MOV     R2,DPL
        MOV     R3,DPH
        MOV     R1,#0x0
        LCALL   ??HalUARTOpen?relay
//  240 }
        MOV     A,#0x1d
        LCALL   ?DEALLOC_XSTACK8
        CFI CFA_XSP16 XSP16+0
        LJMP    ?Subroutine0 & 0xFFFF
        CFI EndBlock cfiBlock0
//  241 

        RSEG BANKED_CODE:CODE:NOROOT(0)
//  242 static void rxCB(uint8 port,uint8 event)
rxCB:
        CFI Block cfiBlock1 Using cfiCommon0
        CFI Function rxCB
        CODE
//  243 {
        FUNCALL rxCB, HalUARTRead
        LOCFRAME ISTACK, 0, STACK
        LOCFRAME PSTACK, 0, STACK
        LOCFRAME XSTACK, 138, STACK
        LOCFRAME IOVERLAY, 0, STATIC
        LOCFRAME DOVERLAY, 0, STATIC
        ARGFRAME ISTACK, 0, STACK
        ARGFRAME PSTACK, 0, STACK
        ARGFRAME XSTACK, 138, STACK
        ARGFRAME IOVERLAY, 0, STATIC
        ARGFRAME DOVERLAY, 0, STATIC
        FUNCALL rxCB, Hal_UART_RxBufLen
        LOCFRAME ISTACK, 0, STACK
        LOCFRAME PSTACK, 0, STACK
        LOCFRAME XSTACK, 138, STACK
        LOCFRAME IOVERLAY, 0, STATIC
        LOCFRAME DOVERLAY, 0, STATIC
        ARGFRAME ISTACK, 0, STACK
        ARGFRAME PSTACK, 0, STACK
        ARGFRAME XSTACK, 138, STACK
        ARGFRAME IOVERLAY, 0, STATIC
        ARGFRAME DOVERLAY, 0, STATIC
        MOV     A,#-0xa
        LCALL   ?BANKED_ENTER_XDATA
        CFI DPH0 load(1, XDATA, add(CFA_XSP16, literal(-1)))
        CFI DPL0 load(1, XDATA, add(CFA_XSP16, literal(-2)))
        CFI ?BRET_EXT load(1, XDATA, add(CFA_XSP16, literal(-3)))
        CFI ?RET_HIGH load(1, XDATA, add(CFA_XSP16, literal(-4)))
        CFI ?RET_LOW load(1, XDATA, add(CFA_XSP16, literal(-5)))
        CFI R7 load(1, XDATA, add(CFA_XSP16, literal(-6)))
        CFI V1 load(1, XDATA, add(CFA_XSP16, literal(-7)))
        CFI V0 load(1, XDATA, add(CFA_XSP16, literal(-8)))
        CFI VB load(1, XDATA, add(CFA_XSP16, literal(-9)))
        CFI R6 load(1, XDATA, add(CFA_XSP16, literal(-10)))
        CFI CFA_SP SP+0
        CFI CFA_XSP16 add(XSP16, 10)
        ; Saved register size: 10
        ; Auto size: 128
        MOV     A,#-0x80
        LCALL   ?ALLOC_XSTACK8
        CFI CFA_XSP16 add(XSP16, 138)
//  244   unsigned char j=0,uartbuf[128]={0x00};
        MOV     R6,#0x0
        MOV     DPL,?XSP + 0
        MOV     DPH,?XSP + 1
        MOV     R4,DPL
        MOV     R5,DPH
        MOV     DPH,#(`?<Constant {0}>` >> 8) & 0xff
        MOV     DPL,#`?<Constant {0}>` & 0xff
        MOV     A,#-0x80
        LCALL   ?MOVE_LONG8_XDATA_XDATA
        SJMP    ??rxCB_0
//  245   while (Hal_UART_RxBufLen(0)) //检测串口数据是否接收完成
//  246   {
//  247     HalUARTRead (0,&uartbuf[j], 1);  //把数据接收放到buf中
??rxCB_1:
        ; Setup parameters for call to function HalUARTRead
        MOV     R4,#0x1
        MOV     R5,#0x0
        MOV     ?V0 + 0,R6
        MOV     DPL,?XSP + 0
        MOV     DPH,?XSP + 1
        MOV     A,DPL
        ADD     A,?V0 + 0
        MOV     R2,A
        MOV     A,DPH
        ADDC    A,#0x0
        MOV     R3,A
        MOV     R1,#0x0
        LCALL   ??HalUARTRead?relay
//  248     j++;                           //记录字符数
        INC     R6
//  249   } 
??rxCB_0:
        ; Setup parameters for call to function Hal_UART_RxBufLen
        MOV     R1,#0x0
        LCALL   ??Hal_UART_RxBufLen?relay
        MOV     ?V0 + 1,R3
        MOV     A,R2
        ORL     A,?V0 + 1
        JNZ     ??rxCB_1
//  250 }
        MOV     A,#-0x80
        LJMP    ?Subroutine1 & 0xFFFF
        CFI EndBlock cfiBlock1
//  251 /*********************************************************************
//  252  * @fn      GenericApp_Init
//  253  *
//  254  * @brief   Initialization function for the Generic App Task.
//  255  *          This is called during initialization and should contain
//  256  *          any application specific initialization (ie. hardware
//  257  *          initialization/setup, table initialization, power up
//  258  *          notificaiton ... ).
//  259  *
//  260  * @param   task_id - the ID assigned by OSAL.  This ID should be
//  261  *                    used to send messages and set timers.
//  262  *
//  263  * @return  none
//  264  */

        RSEG BANKED_CODE:CODE:NOROOT(0)
//  265 void GenericApp_Init( uint8 task_id )
GenericApp_Init:
        CFI Block cfiBlock2 Using cfiCommon0
        CFI Function GenericApp_Init
        CODE
//  266 {
        FUNCALL GenericApp_Init, UartInitPort0
        LOCFRAME ISTACK, 0, STACK
        LOCFRAME PSTACK, 0, STACK
        LOCFRAME XSTACK, 9, STACK
        LOCFRAME IOVERLAY, 0, STATIC
        LOCFRAME DOVERLAY, 0, STATIC
        ARGFRAME ISTACK, 0, STACK
        ARGFRAME PSTACK, 0, STACK
        ARGFRAME XSTACK, 9, STACK
        ARGFRAME IOVERLAY, 0, STATIC
        ARGFRAME DOVERLAY, 0, STATIC
        FUNCALL GenericApp_Init, afRegister
        LOCFRAME ISTACK, 0, STACK
        LOCFRAME PSTACK, 0, STACK
        LOCFRAME XSTACK, 9, STACK
        LOCFRAME IOVERLAY, 0, STATIC
        LOCFRAME DOVERLAY, 0, STATIC
        ARGFRAME ISTACK, 0, STACK
        ARGFRAME PSTACK, 0, STACK
        ARGFRAME XSTACK, 9, STACK
        ARGFRAME IOVERLAY, 0, STATIC
        ARGFRAME DOVERLAY, 0, STATIC
        FUNCALL GenericApp_Init, RegisterForKeys
        LOCFRAME ISTACK, 0, STACK
        LOCFRAME PSTACK, 0, STACK
        LOCFRAME XSTACK, 9, STACK
        LOCFRAME IOVERLAY, 0, STATIC
        LOCFRAME DOVERLAY, 0, STATIC
        ARGFRAME ISTACK, 0, STACK
        ARGFRAME PSTACK, 0, STACK
        ARGFRAME XSTACK, 9, STACK
        ARGFRAME IOVERLAY, 0, STATIC
        ARGFRAME DOVERLAY, 0, STATIC
        FUNCALL GenericApp_Init, HalLcdWriteString
        LOCFRAME ISTACK, 0, STACK
        LOCFRAME PSTACK, 0, STACK
        LOCFRAME XSTACK, 9, STACK
        LOCFRAME IOVERLAY, 0, STATIC
        LOCFRAME DOVERLAY, 0, STATIC
        ARGFRAME ISTACK, 0, STACK
        ARGFRAME PSTACK, 0, STACK
        ARGFRAME XSTACK, 9, STACK
        ARGFRAME IOVERLAY, 0, STATIC
        ARGFRAME DOVERLAY, 0, STATIC
        FUNCALL GenericApp_Init, ZDO_RegisterForZDOMsg
        LOCFRAME ISTACK, 0, STACK
        LOCFRAME PSTACK, 0, STACK
        LOCFRAME XSTACK, 9, STACK
        LOCFRAME IOVERLAY, 0, STATIC
        LOCFRAME DOVERLAY, 0, STATIC
        ARGFRAME ISTACK, 0, STACK
        ARGFRAME PSTACK, 0, STACK
        ARGFRAME XSTACK, 9, STACK
        ARGFRAME IOVERLAY, 0, STATIC
        ARGFRAME DOVERLAY, 0, STATIC
        FUNCALL GenericApp_Init, ZDO_RegisterForZDOMsg
        LOCFRAME ISTACK, 0, STACK
        LOCFRAME PSTACK, 0, STACK
        LOCFRAME XSTACK, 9, STACK
        LOCFRAME IOVERLAY, 0, STATIC
        LOCFRAME DOVERLAY, 0, STATIC
        ARGFRAME ISTACK, 0, STACK
        ARGFRAME PSTACK, 0, STACK
        ARGFRAME XSTACK, 9, STACK
        ARGFRAME IOVERLAY, 0, STATIC
        ARGFRAME DOVERLAY, 0, STATIC
        MOV     A,#-0x9
        LCALL   ?BANKED_ENTER_XDATA
        CFI DPH0 load(1, XDATA, add(CFA_XSP16, literal(-1)))
        CFI DPL0 load(1, XDATA, add(CFA_XSP16, literal(-2)))
        CFI ?BRET_EXT load(1, XDATA, add(CFA_XSP16, literal(-3)))
        CFI ?RET_HIGH load(1, XDATA, add(CFA_XSP16, literal(-4)))
        CFI ?RET_LOW load(1, XDATA, add(CFA_XSP16, literal(-5)))
        CFI R7 load(1, XDATA, add(CFA_XSP16, literal(-6)))
        CFI V0 load(1, XDATA, add(CFA_XSP16, literal(-7)))
        CFI VB load(1, XDATA, add(CFA_XSP16, literal(-8)))
        CFI R6 load(1, XDATA, add(CFA_XSP16, literal(-9)))
        CFI CFA_SP SP+0
        CFI CFA_XSP16 add(XSP16, 9)
        ; Saved register size: 9
        ; Auto size: 0
        MOV     A,R1
//  267  
//  268   GenericApp_TaskID = task_id;
        MOV     DPTR,#GenericApp_TaskID
        MOVX    @DPTR,A
//  269   GenericApp_NwkState = DEV_INIT;
        MOV     DPTR,#GenericApp_NwkState
        MOV     A,#0x1
        MOVX    @DPTR,A
//  270   GenericApp_TransID = 0;
        MOV     DPTR,#GenericApp_TransID
        CLR     A
        MOVX    @DPTR,A
//  271   P1DIR|=0X03;//!<  设置P10 P11端口输出
        ORL     0xfe,#0x3
//  272   if(ENDNUM==4)
//  273   {
//  274   startPwm();             //!< 配置T1输出PWM
//  275   TIMER_STOP();          //!< 默认关闭蜂鸣器
//  276   }
//  277   if(ENDNUM == 5)
//  278   {
//  279     InitIO();
//  280     //!< 改变这个参数可以调整电机转速，数字越小，转速越大,力矩越小
//  281     ucSpeed = 2; 
//  282   }
//  283   if(ENDNUM == 3)
//  284   {
//  285     P1DIR |= 0x20;   //!<  设置P1_5为输出口
        ORL     0xfe,#0x20
//  286     P0SEL &= ~0x40;
        ANL     0xf3,#0xbf
//  287     P0DIR &= ~0x40; 
        ANL     0xfd,#0xbf
//  288   }
//  289     
//  290   
//  291   UartInitPort0();//初始化下串口，方便数据打印
        ; Setup parameters for call to function UartInitPort0
        LCALL   ??UartInitPort0?relay
//  292   GenericApp_DstAddr.addrMode = (afAddrMode_t)Addr16Bit;//表明单播功能
        MOV     DPTR,#GenericApp_DstAddr + 8
        MOV     A,#0x2
        MOVX    @DPTR,A
//  293   GenericApp_DstAddr.endPoint = GENERICAPP_ENDPOINT;//发到协调器的对应的端点位置，此端点位置需要和协调器的端点位置保持一致
        INC     DPTR
        MOV     A,#0xa
        MOVX    @DPTR,A
//  294   GenericApp_DstAddr.addr.shortAddr = 0x0000;//发送给网络端的协调器
        MOV     DPTR,#GenericApp_DstAddr
        CLR     A
        MOVX    @DPTR,A
        INC     DPTR
        MOVX    @DPTR,A
//  295 
//  296   // Fill out the endpoint description.
//  297   GenericApp_epDesc.endPoint = GENERICAPP_ENDPOINT;
        MOV     DPTR,#GenericApp_epDesc
        MOV     A,#0xa
        MOVX    @DPTR,A
//  298   GenericApp_epDesc.task_id = &GenericApp_TaskID;
        INC     DPTR
        MOV     A,#GenericApp_TaskID & 0xff
        MOVX    @DPTR,A
        INC     DPTR
        MOV     A,#(GenericApp_TaskID >> 8) & 0xff
        MOVX    @DPTR,A
//  299   GenericApp_epDesc.simpleDesc
//  300             = (SimpleDescriptionFormat_t *)&GenericApp_SimpleDesc;
        INC     DPTR
        MOV     A,#GenericApp_SimpleDesc & 0xff
        MOVX    @DPTR,A
        INC     DPTR
        MOV     A,#(GenericApp_SimpleDesc >> 8) & 0xff
        MOVX    @DPTR,A
//  301   GenericApp_epDesc.latencyReq = noLatencyReqs;
        INC     DPTR
        CLR     A
        MOVX    @DPTR,A
//  302 
//  303   // Register the endpoint description with the AF
//  304   afRegister( &GenericApp_epDesc );
        ; Setup parameters for call to function afRegister
        MOV     R2,#GenericApp_epDesc & 0xff
        MOV     R3,#(GenericApp_epDesc >> 8) & 0xff
        LCALL   ??afRegister?relay
//  305 
//  306   // Register for all key events - This app will handle all key events
//  307   RegisterForKeys( GenericApp_TaskID );
        ; Setup parameters for call to function RegisterForKeys
        MOV     DPTR,#GenericApp_TaskID
        MOVX    A,@DPTR
        MOV     R1,A
        LCALL   ??RegisterForKeys?relay
//  308 
//  309   // Update the display
//  310 #if defined ( LCD_SUPPORTED )
//  311   HalLcdWriteString( "GenericApp", HAL_LCD_LINE_1 );
        ; Setup parameters for call to function HalLcdWriteString
        MOV     R1,#0x1
        MOV     R2,#`?<Constant "GenericApp">` & 0xff
        MOV     R3,#(`?<Constant "GenericApp">` >> 8) & 0xff
        LCALL   ??HalLcdWriteString?relay
//  312 #endif
//  313 
//  314   ZDO_RegisterForZDOMsg( GenericApp_TaskID, End_Device_Bind_rsp );
        ; Setup parameters for call to function ZDO_RegisterForZDOMsg
        MOV     R2,#0x20
        MOV     R3,#-0x80
        MOV     DPTR,#GenericApp_TaskID
        MOVX    A,@DPTR
        MOV     R1,A
        LCALL   ??ZDO_RegisterForZDOMsg?relay
//  315   ZDO_RegisterForZDOMsg( GenericApp_TaskID, Match_Desc_rsp );
        ; Setup parameters for call to function ZDO_RegisterForZDOMsg
        MOV     R2,#0x6
        MOV     R3,#-0x80
        MOV     DPTR,#GenericApp_TaskID
        MOVX    A,@DPTR
        MOV     R1,A
        LCALL   ??ZDO_RegisterForZDOMsg?relay
        CFI EndBlock cfiBlock2
//  316 
//  317 #if defined( IAR_ARMCM3_LM )
//  318   // Register this task with RTOS task initiator
//  319   RTOS_RegisterApp( task_id, GENERICAPP_RTOS_MSG_EVT );
//  320 #endif
//  321 }
        REQUIRE ?Subroutine2
        REQUIRE P1DIR
        REQUIRE T1CTL
        REQUIRE P0SEL
        REQUIRE P0DIR
        ; // Fall through to label ?Subroutine2

        RSEG BANKED_CODE:CODE:NOROOT(0)
?Subroutine2:
        CFI Block cfiBlock3 Using cfiCommon0
        CFI NoFunction
        CFI CFA_SP SP+0
        CFI CFA_XSP16 add(XSP16, 9)
        CFI VB load(1, XDATA, add(CFA_XSP16, literal(-8)))
        CFI DPL0 load(1, XDATA, add(CFA_XSP16, literal(-2)))
        CFI DPH0 load(1, XDATA, add(CFA_XSP16, literal(-1)))
        CFI R6 load(1, XDATA, add(CFA_XSP16, literal(-9)))
        CFI R7 load(1, XDATA, add(CFA_XSP16, literal(-6)))
        CFI V0 load(1, XDATA, add(CFA_XSP16, literal(-7)))
        CFI ?BRET_EXT load(1, XDATA, add(CFA_XSP16, literal(-3)))
        CFI ?RET_HIGH load(1, XDATA, add(CFA_XSP16, literal(-4)))
        CFI ?RET_LOW load(1, XDATA, add(CFA_XSP16, literal(-5)))
        MOV     R7,#0x1
        LJMP    ?BANKED_LEAVE_XDATA
        CFI EndBlock cfiBlock3
//  322 
//  323 /*********************************************************************
//  324  * @fn      GenericApp_ProcessEvent
//  325  *
//  326  * @brief   Generic Application Task event processor.  This function
//  327  *          is called to process all events for the task.  Events
//  328  *          include timers, messages and any other user defined events.
//  329  *
//  330  * @param   task_id  - The OSAL assigned task ID.
//  331  * @param   events - events to process.  This is a bit map and can
//  332  *                   contain more than one event.
//  333  *
//  334  * @return  none
//  335  */

        RSEG BANKED_CODE:CODE:NOROOT(0)
//  336 uint16 GenericApp_ProcessEvent( uint8 task_id, uint16 events )
GenericApp_ProcessEvent:
        CFI Block cfiBlock4 Using cfiCommon0
        CFI Function GenericApp_ProcessEvent
        CODE
//  337 {
        FUNCALL GenericApp_ProcessEvent, osal_msg_receive
        LOCFRAME ISTACK, 0, STACK
        LOCFRAME PSTACK, 0, STACK
        LOCFRAME XSTACK, 23, STACK
        LOCFRAME IOVERLAY, 0, STATIC
        LOCFRAME DOVERLAY, 0, STATIC
        ARGFRAME ISTACK, 0, STACK
        ARGFRAME PSTACK, 0, STACK
        ARGFRAME XSTACK, 23, STACK
        ARGFRAME IOVERLAY, 0, STATIC
        ARGFRAME DOVERLAY, 0, STATIC
        FUNCALL GenericApp_ProcessEvent, osal_start_timerEx
        LOCFRAME ISTACK, 0, STACK
        LOCFRAME PSTACK, 0, STACK
        LOCFRAME XSTACK, 23, STACK
        LOCFRAME IOVERLAY, 0, STATIC
        LOCFRAME DOVERLAY, 0, STATIC
        ARGFRAME ISTACK, 0, STACK
        ARGFRAME PSTACK, 0, STACK
        ARGFRAME XSTACK, 23, STACK
        ARGFRAME IOVERLAY, 0, STATIC
        ARGFRAME DOVERLAY, 0, STATIC
        FUNCALL GenericApp_ProcessEvent, osal_msg_deallocate
        LOCFRAME ISTACK, 0, STACK
        LOCFRAME PSTACK, 0, STACK
        LOCFRAME XSTACK, 23, STACK
        LOCFRAME IOVERLAY, 0, STATIC
        LOCFRAME DOVERLAY, 0, STATIC
        ARGFRAME ISTACK, 0, STACK
        ARGFRAME PSTACK, 0, STACK
        ARGFRAME XSTACK, 23, STACK
        ARGFRAME IOVERLAY, 0, STATIC
        ARGFRAME DOVERLAY, 0, STATIC
        FUNCALL GenericApp_ProcessEvent, osal_msg_receive
        LOCFRAME ISTACK, 0, STACK
        LOCFRAME PSTACK, 0, STACK
        LOCFRAME XSTACK, 23, STACK
        LOCFRAME IOVERLAY, 0, STATIC
        LOCFRAME DOVERLAY, 0, STATIC
        ARGFRAME ISTACK, 0, STACK
        ARGFRAME PSTACK, 0, STACK
        ARGFRAME XSTACK, 23, STACK
        ARGFRAME IOVERLAY, 0, STATIC
        ARGFRAME DOVERLAY, 0, STATIC
        FUNCALL GenericApp_ProcessEvent, ZDO_ParseEPListRsp
        LOCFRAME ISTACK, 0, STACK
        LOCFRAME PSTACK, 0, STACK
        LOCFRAME XSTACK, 23, STACK
        LOCFRAME IOVERLAY, 0, STATIC
        LOCFRAME DOVERLAY, 0, STATIC
        ARGFRAME ISTACK, 0, STACK
        ARGFRAME PSTACK, 0, STACK
        ARGFRAME XSTACK, 23, STACK
        ARGFRAME IOVERLAY, 0, STATIC
        ARGFRAME DOVERLAY, 0, STATIC
        FUNCALL GenericApp_ProcessEvent, HalLedSet
        LOCFRAME ISTACK, 0, STACK
        LOCFRAME PSTACK, 0, STACK
        LOCFRAME XSTACK, 23, STACK
        LOCFRAME IOVERLAY, 0, STATIC
        LOCFRAME DOVERLAY, 0, STATIC
        ARGFRAME ISTACK, 0, STACK
        ARGFRAME PSTACK, 0, STACK
        ARGFRAME XSTACK, 23, STACK
        ARGFRAME IOVERLAY, 0, STATIC
        ARGFRAME DOVERLAY, 0, STATIC
        FUNCALL GenericApp_ProcessEvent, osal_mem_free
        LOCFRAME ISTACK, 0, STACK
        LOCFRAME PSTACK, 0, STACK
        LOCFRAME XSTACK, 23, STACK
        LOCFRAME IOVERLAY, 0, STATIC
        LOCFRAME DOVERLAY, 0, STATIC
        ARGFRAME ISTACK, 0, STACK
        ARGFRAME PSTACK, 0, STACK
        ARGFRAME XSTACK, 23, STACK
        ARGFRAME IOVERLAY, 0, STATIC
        ARGFRAME DOVERLAY, 0, STATIC
        FUNCALL GenericApp_ProcessEvent, HalLedSet
        LOCFRAME ISTACK, 0, STACK
        LOCFRAME PSTACK, 0, STACK
        LOCFRAME XSTACK, 23, STACK
        LOCFRAME IOVERLAY, 0, STATIC
        LOCFRAME DOVERLAY, 0, STATIC
        ARGFRAME ISTACK, 0, STACK
        ARGFRAME PSTACK, 0, STACK
        ARGFRAME XSTACK, 23, STACK
        ARGFRAME IOVERLAY, 0, STATIC
        ARGFRAME DOVERLAY, 0, STATIC
        FUNCALL GenericApp_ProcessEvent, HalLedSet
        LOCFRAME ISTACK, 0, STACK
        LOCFRAME PSTACK, 0, STACK
        LOCFRAME XSTACK, 23, STACK
        LOCFRAME IOVERLAY, 0, STATIC
        LOCFRAME DOVERLAY, 0, STATIC
        ARGFRAME ISTACK, 0, STACK
        ARGFRAME PSTACK, 0, STACK
        ARGFRAME XSTACK, 23, STACK
        ARGFRAME IOVERLAY, 0, STATIC
        ARGFRAME DOVERLAY, 0, STATIC
        FUNCALL GenericApp_ProcessEvent, HalLedSet
        LOCFRAME ISTACK, 0, STACK
        LOCFRAME PSTACK, 0, STACK
        LOCFRAME XSTACK, 23, STACK
        LOCFRAME IOVERLAY, 0, STATIC
        LOCFRAME DOVERLAY, 0, STATIC
        ARGFRAME ISTACK, 0, STACK
        ARGFRAME PSTACK, 0, STACK
        ARGFRAME XSTACK, 23, STACK
        ARGFRAME IOVERLAY, 0, STATIC
        ARGFRAME DOVERLAY, 0, STATIC
        FUNCALL GenericApp_ProcessEvent, NLME_GetShortAddr
        LOCFRAME ISTACK, 0, STACK
        LOCFRAME PSTACK, 0, STACK
        LOCFRAME XSTACK, 23, STACK
        LOCFRAME IOVERLAY, 0, STATIC
        LOCFRAME DOVERLAY, 0, STATIC
        ARGFRAME ISTACK, 0, STACK
        ARGFRAME PSTACK, 0, STACK
        ARGFRAME XSTACK, 23, STACK
        ARGFRAME IOVERLAY, 0, STATIC
        ARGFRAME DOVERLAY, 0, STATIC
        FUNCALL GenericApp_ProcessEvent, ZDP_EndDeviceBindReq
        LOCFRAME ISTACK, 0, STACK
        LOCFRAME PSTACK, 0, STACK
        LOCFRAME XSTACK, 32, STACK
        LOCFRAME IOVERLAY, 0, STATIC
        LOCFRAME DOVERLAY, 0, STATIC
        ARGFRAME ISTACK, 0, STACK
        ARGFRAME PSTACK, 0, STACK
        ARGFRAME XSTACK, 32, STACK
        ARGFRAME IOVERLAY, 0, STATIC
        ARGFRAME DOVERLAY, 0, STATIC
        FUNCALL GenericApp_ProcessEvent, HalLedSet
        LOCFRAME ISTACK, 0, STACK
        LOCFRAME PSTACK, 0, STACK
        LOCFRAME XSTACK, 23, STACK
        LOCFRAME IOVERLAY, 0, STATIC
        LOCFRAME DOVERLAY, 0, STATIC
        ARGFRAME ISTACK, 0, STACK
        ARGFRAME PSTACK, 0, STACK
        ARGFRAME XSTACK, 23, STACK
        ARGFRAME IOVERLAY, 0, STATIC
        ARGFRAME DOVERLAY, 0, STATIC
        FUNCALL GenericApp_ProcessEvent, ZDP_MatchDescReq
        LOCFRAME ISTACK, 0, STACK
        LOCFRAME PSTACK, 0, STACK
        LOCFRAME XSTACK, 31, STACK
        LOCFRAME IOVERLAY, 0, STATIC
        LOCFRAME DOVERLAY, 0, STATIC
        ARGFRAME ISTACK, 0, STACK
        ARGFRAME PSTACK, 0, STACK
        ARGFRAME XSTACK, 31, STACK
        ARGFRAME IOVERLAY, 0, STATIC
        ARGFRAME DOVERLAY, 0, STATIC
        FUNCALL GenericApp_ProcessEvent, HalUARTWrite
        LOCFRAME ISTACK, 0, STACK
        LOCFRAME PSTACK, 0, STACK
        LOCFRAME XSTACK, 23, STACK
        LOCFRAME IOVERLAY, 0, STATIC
        LOCFRAME DOVERLAY, 0, STATIC
        ARGFRAME ISTACK, 0, STACK
        ARGFRAME PSTACK, 0, STACK
        ARGFRAME XSTACK, 23, STACK
        ARGFRAME IOVERLAY, 0, STATIC
        ARGFRAME DOVERLAY, 0, STATIC
        FUNCALL GenericApp_ProcessEvent, Delay_ms
        LOCFRAME ISTACK, 0, STACK
        LOCFRAME PSTACK, 0, STACK
        LOCFRAME XSTACK, 23, STACK
        LOCFRAME IOVERLAY, 0, STATIC
        LOCFRAME DOVERLAY, 0, STATIC
        ARGFRAME ISTACK, 0, STACK
        ARGFRAME PSTACK, 0, STACK
        ARGFRAME XSTACK, 23, STACK
        ARGFRAME IOVERLAY, 0, STATIC
        ARGFRAME DOVERLAY, 0, STATIC
        FUNCALL GenericApp_ProcessEvent, controlRelay
        LOCFRAME ISTACK, 0, STACK
        LOCFRAME PSTACK, 0, STACK
        LOCFRAME XSTACK, 23, STACK
        LOCFRAME IOVERLAY, 0, STATIC
        LOCFRAME DOVERLAY, 0, STATIC
        ARGFRAME ISTACK, 0, STACK
        ARGFRAME PSTACK, 0, STACK
        ARGFRAME XSTACK, 23, STACK
        ARGFRAME IOVERLAY, 0, STATIC
        ARGFRAME DOVERLAY, 0, STATIC
        FUNCALL GenericApp_ProcessEvent, GenericApp_SendTheMessage
        LOCFRAME ISTACK, 0, STACK
        LOCFRAME PSTACK, 0, STACK
        LOCFRAME XSTACK, 23, STACK
        LOCFRAME IOVERLAY, 0, STATIC
        LOCFRAME DOVERLAY, 0, STATIC
        ARGFRAME ISTACK, 0, STACK
        ARGFRAME PSTACK, 0, STACK
        ARGFRAME XSTACK, 23, STACK
        ARGFRAME IOVERLAY, 0, STATIC
        ARGFRAME DOVERLAY, 0, STATIC
        FUNCALL GenericApp_ProcessEvent, osal_rand
        LOCFRAME ISTACK, 0, STACK
        LOCFRAME PSTACK, 0, STACK
        LOCFRAME XSTACK, 23, STACK
        LOCFRAME IOVERLAY, 0, STATIC
        LOCFRAME DOVERLAY, 0, STATIC
        ARGFRAME ISTACK, 0, STACK
        ARGFRAME PSTACK, 0, STACK
        ARGFRAME XSTACK, 23, STACK
        ARGFRAME IOVERLAY, 0, STATIC
        ARGFRAME DOVERLAY, 0, STATIC
        FUNCALL GenericApp_ProcessEvent, osal_start_timerEx
        LOCFRAME ISTACK, 0, STACK
        LOCFRAME PSTACK, 0, STACK
        LOCFRAME XSTACK, 23, STACK
        LOCFRAME IOVERLAY, 0, STATIC
        LOCFRAME DOVERLAY, 0, STATIC
        ARGFRAME ISTACK, 0, STACK
        ARGFRAME PSTACK, 0, STACK
        ARGFRAME XSTACK, 23, STACK
        ARGFRAME IOVERLAY, 0, STATIC
        ARGFRAME DOVERLAY, 0, STATIC
        MOV     A,#-0xe
        LCALL   ?BANKED_ENTER_XDATA
        CFI DPH0 load(1, XDATA, add(CFA_XSP16, literal(-1)))
        CFI DPL0 load(1, XDATA, add(CFA_XSP16, literal(-2)))
        CFI ?BRET_EXT load(1, XDATA, add(CFA_XSP16, literal(-3)))
        CFI ?RET_HIGH load(1, XDATA, add(CFA_XSP16, literal(-4)))
        CFI ?RET_LOW load(1, XDATA, add(CFA_XSP16, literal(-5)))
        CFI R7 load(1, XDATA, add(CFA_XSP16, literal(-6)))
        CFI V5 load(1, XDATA, add(CFA_XSP16, literal(-7)))
        CFI V4 load(1, XDATA, add(CFA_XSP16, literal(-8)))
        CFI V3 load(1, XDATA, add(CFA_XSP16, literal(-9)))
        CFI V2 load(1, XDATA, add(CFA_XSP16, literal(-10)))
        CFI V1 load(1, XDATA, add(CFA_XSP16, literal(-11)))
        CFI V0 load(1, XDATA, add(CFA_XSP16, literal(-12)))
        CFI VB load(1, XDATA, add(CFA_XSP16, literal(-13)))
        CFI R6 load(1, XDATA, add(CFA_XSP16, literal(-14)))
        CFI CFA_SP SP+0
        CFI CFA_XSP16 add(XSP16, 14)
        ; Saved register size: 14
        ; Auto size: 9
        MOV     A,#-0x9
        LCALL   ?ALLOC_XSTACK8
        CFI CFA_XSP16 add(XSP16, 23)
        MOV     ?V0 + 0,R2
        MOV     ?V0 + 1,R3
//  338   afIncomingMSGPacket_t *MSGpkt;
//  339   afDataConfirm_t *afDataConfirm;
//  340 
//  341   // Data Confirmation message fields
//  342   byte sentEP;
//  343   ZStatus_t sentStatus;
//  344   byte sentTransID;       // This should match the value sent
//  345   (void)task_id;  // Intentionally unreferenced parameter
//  346 
//  347   if ( events & SYS_EVENT_MSG )
        MOV     A,R3
        ANL     A,#0x80
        JNZ     $+5
        LJMP    ??GenericApp_ProcessEvent_0 & 0xFFFF
//  348   {
//  349     MSGpkt = (afIncomingMSGPacket_t *)osal_msg_receive( GenericApp_TaskID );
        ; Setup parameters for call to function osal_msg_receive
        SJMP    ??GenericApp_ProcessEvent_1
//  350     while ( MSGpkt )
//  351     {
//  352       switch ( MSGpkt->hdr.event )
//  353       {
//  354         case ZDO_CB_MSG:
//  355           GenericApp_ProcessZDOMsgs( (zdoIncomingMsg_t *)MSGpkt );
//  356           break;
//  357 
//  358         case KEY_CHANGE:
//  359           GenericApp_HandleKeys( ((keyChange_t *)MSGpkt)->state, ((keyChange_t *)MSGpkt)->keys );
//  360           break;
//  361 
//  362         case AF_DATA_CONFIRM_CMD:
//  363           // This message is received as a confirmation of a data packet sent.
//  364           // The status is of ZStatus_t type [defined in ZComDef.h]
//  365           // The message fields are defined in AF.h
//  366           afDataConfirm = (afDataConfirm_t *)MSGpkt;
//  367           sentEP = afDataConfirm->endpoint;
//  368           sentStatus = afDataConfirm->hdr.status;
//  369           sentTransID = afDataConfirm->transID;
//  370           (void)sentEP;
//  371           (void)sentTransID;
//  372 
//  373           // Action taken when confirmation is received.
//  374           if ( sentStatus != ZSuccess )
//  375           {
//  376             // The data wasn't delivered -- Do something
//  377           }
//  378           break;
//  379 
//  380         case AF_INCOMING_MSG_CMD:
//  381           GenericApp_MessageMSGCB( MSGpkt );
//  382           break;
//  383 
//  384         case ZDO_STATE_CHANGE://!<  网络状态改变触发
//  385           GenericApp_NwkState = (devStates_t)(MSGpkt->hdr.status);
??GenericApp_ProcessEvent_2:
        INC     DPTR
        MOVX    A,@DPTR
        MOV     DPTR,#GenericApp_NwkState
        MOVX    @DPTR,A
//  386           if ( (GenericApp_NwkState == DEV_ZB_COORD)
//  387               || (GenericApp_NwkState == DEV_ROUTER)
//  388               || (GenericApp_NwkState == DEV_END_DEVICE) )
        XRL     A,#0x9
        JZ      ??GenericApp_ProcessEvent_3
        MOVX    A,@DPTR
        XRL     A,#0x7
        JZ      ??GenericApp_ProcessEvent_3
        MOVX    A,@DPTR
        XRL     A,#0x6
        JNZ     ??GenericApp_ProcessEvent_4
//  389           {
//  390             //!<  设置定时器等待事件
//  391             osal_start_timerEx( GenericApp_TaskID,
//  392                                 GENERICAPP_SEND_MSG_EVT,
//  393                                 GENERICAPP_SEND_MSG_TIMEOUT );
??GenericApp_ProcessEvent_3:
        ; Setup parameters for call to function osal_start_timerEx
        MOV     R4,#-0x24
        MOV     R5,#0x5
        MOV     R2,#0x1
        MOV     R3,#0x0
        MOV     DPTR,#GenericApp_TaskID
        MOVX    A,@DPTR
        MOV     R1,A
        LCALL   ??osal_start_timerEx?relay
//  394           }
//  395           break;
//  396 
//  397         default:
//  398           break;
//  399       }
//  400 
//  401       // Release the memory
//  402       osal_msg_deallocate( (uint8 *)MSGpkt );
??GenericApp_ProcessEvent_4:
        ; Setup parameters for call to function osal_msg_deallocate
        MOV     A,R6
        MOV     R2,A
        MOV     A,R7
        MOV     R3,A
        LCALL   ??osal_msg_deallocate?relay
//  403 
//  404       // Next
//  405       MSGpkt = (afIncomingMSGPacket_t *)osal_msg_receive( GenericApp_TaskID );
        ; Setup parameters for call to function osal_msg_receive
??GenericApp_ProcessEvent_1:
        MOV     DPTR,#GenericApp_TaskID
        MOVX    A,@DPTR
        MOV     R1,A
        LCALL   ??osal_msg_receive?relay
        MOV     ?V0 + 2,R2
        MOV     ?V0 + 3,R3
        MOV     R6,?V0 + 2
        MOV     R7,?V0 + 3
        MOV     A,R6
        ORL     A,R7
        JNZ     $+5
        LJMP    ??GenericApp_ProcessEvent_5 & 0xFFFF
        MOV     DPL,R6
        MOV     DPH,R7
        MOVX    A,@DPTR
        ADD     A,#-0x1a
        JNZ     $+5
        LJMP    ??GenericApp_ProcessEvent_6 & 0xFFFF
        ADD     A,#0x5a
        JNZ     $+5
        LJMP    ??GenericApp_ProcessEvent_7 & 0xFFFF
        ADD     A,#-0x11
        JZ      ??GenericApp_ProcessEvent_2
        ADD     A,#-0x2
        JNZ     ??GenericApp_ProcessEvent_4
        MOV     A,R6
        ADD     A,#0xc
        LCALL   ?Subroutine8 & 0xFFFF
??CrossCallReturnLabel_15:
        MOV     ?V0 + 2,A
        INC     DPTR
        MOVX    A,@DPTR
        MOV     ?V0 + 3,A
        MOV     R0,#?V0 + 2
        LCALL   ?US_SWITCH_SPARSE
`?<Jumptable for GenericApp_ProcessEvent>_0`:
        DATA
        DATA16
        DATA
        DATA16
        DATA
        DATA16
        DW        0
        DATA
        DATA16
        DATA
        DATA16
        DATA
        DATA16
        DW        2
        DATA
        DATA16
        DATA
        DATA16
        DATA
        DATA16
        DW        32774
        DATA
        DATA16
        DATA
        DATA16
        DATA
        DATA16
        DW        ??GenericApp_ProcessEvent_8
        DATA
        DATA16
        DATA
        DATA16
        DATA
        DATA16
        DW        32800
        DATA
        DATA16
        DATA
        DATA16
        DATA
        DATA16
        DW        ??GenericApp_ProcessEvent_9
        DATA
        DATA16
        DATA
        DATA16
        DW        ??GenericApp_ProcessEvent_4
        CODE
??GenericApp_ProcessEvent_8:
        ; Setup parameters for call to function ZDO_ParseEPListRsp
        MOV     A,R6
        MOV     R2,A
        MOV     A,R7
        MOV     R3,A
        LCALL   ??ZDO_ParseEPListRsp?relay
        MOV     ?V0 + 2,R2
        MOV     ?V0 + 3,R3
        MOV     A,R2
        ORL     A,?V0 + 3
        JZ      ??GenericApp_ProcessEvent_4
        MOV     DPL,R2
        MOV     DPH,R3
        MOVX    A,@DPTR
        JNZ     ??GenericApp_ProcessEvent_10
        INC     DPTR
        INC     DPTR
        INC     DPTR
        MOVX    A,@DPTR
        JZ      ??GenericApp_ProcessEvent_10
        MOV     DPTR,#GenericApp_DstAddr + 8
        MOV     A,#0x2
        MOVX    @DPTR,A
        MOV     DPL,R2
        MOV     DPH,R3
        INC     DPTR
        MOVX    A,@DPTR
        MOV     R0,A
        INC     DPTR
        MOVX    A,@DPTR
        MOV     R1,A
        MOV     DPTR,#GenericApp_DstAddr
        MOV     A,R0
        MOVX    @DPTR,A
        INC     DPTR
        MOV     A,R1
        MOVX    @DPTR,A
        MOV     DPL,R2
        MOV     DPH,R3
        INC     DPTR
        INC     DPTR
        INC     DPTR
        INC     DPTR
        MOVX    A,@DPTR
        MOV     DPTR,#GenericApp_DstAddr + 9
        MOVX    @DPTR,A
        ; Setup parameters for call to function HalLedSet
        MOV     R2,#0x1
        MOV     R1,#0x8
        LCALL   ??HalLedSet?relay
??GenericApp_ProcessEvent_10:
        ; Setup parameters for call to function osal_mem_free
        MOV     R2,?V0 + 2
        MOV     R3,?V0 + 3
        LCALL   ??osal_mem_free?relay
        LJMP    ??GenericApp_ProcessEvent_4 & 0xFFFF
??GenericApp_ProcessEvent_9:
        MOV     A,R6
        ADD     A,#0x13
        LCALL   ?Subroutine8 & 0xFFFF
??CrossCallReturnLabel_16:
        MOV     R0,A
        INC     DPTR
        MOVX    A,@DPTR
        MOV     DPH,A
        MOV     DPL,R0
        MOVX    A,@DPTR
        JNZ     ??GenericApp_ProcessEvent_11
        ; Setup parameters for call to function HalLedSet
        MOV     R2,#0x1
??GenericApp_ProcessEvent_12:
        MOV     R1,#0x8
        LCALL   ??HalLedSet?relay
        LJMP    ??GenericApp_ProcessEvent_4 & 0xFFFF
??GenericApp_ProcessEvent_11:
        ; Setup parameters for call to function HalLedSet
        MOV     R2,#0x4
        SJMP    ??GenericApp_ProcessEvent_12
??GenericApp_ProcessEvent_7:
        INC     DPTR
        INC     DPTR
        INC     DPTR
        MOVX    A,@DPTR
        MOV     ?V0 + 4,A
        MOV     DPL,R6
        MOV     DPH,R7
        INC     DPTR
        INC     DPTR
        MOVX    A,@DPTR
        JZ      $+5
        LJMP    ??GenericApp_ProcessEvent_4 & 0xFFFF
        MOV     A,?V0 + 4
        MOV     C,0xE0 /* A   */.1
        JNC     ??GenericApp_ProcessEvent_13
        ; Setup parameters for call to function HalLedSet
        MOV     R2,#0x0
        MOV     R1,#0x8
        LCALL   ??HalLedSet?relay
        MOV     A,#0x8
        LCALL   ?XSTACK_DISP0_8
        MOV     A,#0x2
        LCALL   ?Subroutine5 & 0xFFFF
??CrossCallReturnLabel_3:
        CLR     A
        MOVX    @DPTR,A
        INC     DPTR
        MOVX    @DPTR,A
        ; Setup parameters for call to function NLME_GetShortAddr
        LCALL   ??NLME_GetShortAddr?relay
        MOV     ?V0 + 2,R2
        MOV     ?V0 + 3,R3
        MOV     R4,?V0 + 2
        MOV     R5,?V0 + 3
        MOV     ?V0 + 2,#GenericApp_ClusterList & 0xff
        MOV     ?V0 + 3,#(GenericApp_ClusterList >> 8) & 0xff
        ; Setup parameters for call to function ZDP_EndDeviceBindReq
        MOV     ?V0 + 5,#0x0
        MOV     R0,#?V0 + 5
        LCALL   ?PUSH_XSTACK_I_ONE
        CFI CFA_XSP16 add(XSP16, 24)
        MOV     R0,#?V0 + 2
        LCALL   ?PUSH_XSTACK_I_TWO
        CFI CFA_XSP16 add(XSP16, 26)
        MOV     ?V0 + 5,#0x4
        MOV     R0,#?V0 + 5
        LCALL   ?PUSH_XSTACK_I_ONE
        CFI CFA_XSP16 add(XSP16, 27)
        MOV     R0,#?V0 + 2
        LCALL   ?PUSH_XSTACK_I_TWO
        CFI CFA_XSP16 add(XSP16, 29)
        MOV     ?V0 + 2,#0x4
        MOV     R0,#?V0 + 2
        LCALL   ?PUSH_XSTACK_I_ONE
        CFI CFA_XSP16 add(XSP16, 30)
        MOV     ?V0 + 3,#0xf
        MOV     R0,#?V0 + 2
        LCALL   ?PUSH_XSTACK_I_TWO
        CFI CFA_XSP16 add(XSP16, 32)
        MOV     DPTR,#GenericApp_epDesc
        MOVX    A,@DPTR
        MOV     R1,A
        MOV     A,#0x9
        LCALL   ?XSTACK_DISP0_8
        MOV     R2,DPL
        MOV     R3,DPH
        LCALL   ??ZDP_EndDeviceBindReq?relay
        MOV     A,#0x9
        LCALL   ?DEALLOC_XSTACK8
        CFI CFA_XSP16 add(XSP16, 23)
??GenericApp_ProcessEvent_13:
        MOV     A,?V0 + 4
        MOV     C,0xE0 /* A   */.3
        JC      $+5
        LJMP    ??GenericApp_ProcessEvent_4 & 0xFFFF
        ; Setup parameters for call to function HalLedSet
        MOV     R2,#0x0
        MOV     R1,#0x8
        LCALL   ??HalLedSet?relay
        MOV     A,#0x8
        LCALL   ?XSTACK_DISP0_8
        MOV     A,#0xf
        LCALL   ?Subroutine5 & 0xFFFF
??CrossCallReturnLabel_4:
        MOV     A,#-0x1
        MOVX    @DPTR,A
        INC     DPTR
        MOVX    @DPTR,A
        MOV     ?V0 + 2,#GenericApp_ClusterList & 0xff
        MOV     ?V0 + 3,#(GenericApp_ClusterList >> 8) & 0xff
        ; Setup parameters for call to function ZDP_MatchDescReq
        MOV     ?V0 + 4,#0x0
        MOV     R0,#?V0 + 4
        LCALL   ?PUSH_XSTACK_I_ONE
        CFI CFA_XSP16 add(XSP16, 24)
        MOV     R0,#?V0 + 2
        LCALL   ?PUSH_XSTACK_I_TWO
        CFI CFA_XSP16 add(XSP16, 26)
        MOV     ?V0 + 4,#0x4
        MOV     R0,#?V0 + 4
        LCALL   ?PUSH_XSTACK_I_ONE
        CFI CFA_XSP16 add(XSP16, 27)
        MOV     R0,#?V0 + 2
        LCALL   ?PUSH_XSTACK_I_TWO
        CFI CFA_XSP16 add(XSP16, 29)
        MOV     ?V0 + 2,#0x4
        MOV     ?V0 + 3,#0xf
        MOV     R0,#?V0 + 2
        LCALL   ?PUSH_XSTACK_I_TWO
        CFI CFA_XSP16 add(XSP16, 31)
        MOV     R1,#0x4
        MOV     R4,#-0x1
        MOV     R5,#-0x1
        MOV     A,#0x8
        LCALL   ?XSTACK_DISP0_8
        MOV     R2,DPL
        MOV     R3,DPH
        LCALL   ??ZDP_MatchDescReq?relay
        MOV     A,#0x8
        LCALL   ?DEALLOC_XSTACK8
        CFI CFA_XSP16 add(XSP16, 23)
        LJMP    ??GenericApp_ProcessEvent_4 & 0xFFFF
??GenericApp_ProcessEvent_6:
        INC     DPTR
        INC     DPTR
        INC     DPTR
        INC     DPTR
        MOVX    A,@DPTR
        XRL     A,#0x1
        JNZ     ??GenericApp_ProcessEvent_14
        INC     DPTR
        MOVX    A,@DPTR
??GenericApp_ProcessEvent_14:
        JZ      $+5
        LJMP    ??GenericApp_ProcessEvent_4 & 0xFFFF
        MOV     A,R6
        ADD     A,#0x22
        MOV     ?V0 + 2,A
        MOV     A,R7
        ADDC    A,#0x0
        MOV     ?V0 + 3,A
        ; Setup parameters for call to function HalUARTWrite
        MOV     A,R6
        ADD     A,#0x20
        LCALL   ?Subroutine8 & 0xFFFF
//  406     }
??CrossCallReturnLabel_17:
        MOV     R4,A
        INC     DPTR
        MOVX    A,@DPTR
        MOV     R5,A
        MOV     DPL,?V0 + 2
        MOV     DPH,?V0 + 3
        MOVX    A,@DPTR
        MOV     R2,A
        INC     DPTR
        MOVX    A,@DPTR
        MOV     R3,A
        MOV     R1,#0x0
        LCALL   ??HalUARTWrite?relay
        ; Setup parameters for call to function Delay_ms
        MOV     R2,#0x5
        MOV     R3,#0x0
        LCALL   ??Delay_ms?relay
        ; Setup parameters for call to function controlRelay
        MOV     DPL,?V0 + 2
        MOV     DPH,?V0 + 3
        MOVX    A,@DPTR
        MOV     R2,A
        INC     DPTR
        MOVX    A,@DPTR
        MOV     R3,A
        LCALL   ??controlRelay?relay
        MOV     ?V0 + 2,R2
        MOV     ?V0 + 3,R3
        MOV     R0,#?V0 + 2
        LCALL   ?US_SWITCH_DENSE
`?<Jumptable for GenericApp_ProcessEvent>_1`:
        DATA
        DATA16
        DATA
        DATA16
        DW        0
        DATA
        DATA8
        DATA
        DATA8
        DB        1
        DATA
        DATA16
        DATA
        DATA16
        DW        ??GenericApp_ProcessEvent_4
        DATA
        DATA16
        DATA
        DATA16
        DW        ??GenericApp_ProcessEvent_15
        DATA
        DATA16
        DATA
        DATA16
        DW        ??GenericApp_ProcessEvent_16
        CODE
??GenericApp_ProcessEvent_16:
        CLR     0x90.5
        MOV     DPTR,#iRelayState
        CLR     A
        MOVX    @DPTR,A
        INC     DPTR
??GenericApp_ProcessEvent_17:
        MOVX    @DPTR,A
        LJMP    ??GenericApp_ProcessEvent_4 & 0xFFFF
??GenericApp_ProcessEvent_15:
        SETB    0x90.5
        MOV     DPTR,#iRelayState
        MOV     A,#0x1
        MOVX    @DPTR,A
        INC     DPTR
        CLR     A
        SJMP    ??GenericApp_ProcessEvent_17
//  407 
//  408     // return unprocessed events
//  409     return (events ^ SYS_EVENT_MSG);
??GenericApp_ProcessEvent_5:
        MOV     R2,?V0 + 0
        MOV     A,?V0 + 1
        XRL     A,#0x80
        MOV     R3,A
        SJMP    ??GenericApp_ProcessEvent_18
//  410   }
//  411 
//  412   // Send a message out - This event is generated by a timer
//  413   //  (setup in GenericApp_Init()).
//  414   if ( events & GENERICAPP_SEND_MSG_EVT )  //!< 发送事件触发
??GenericApp_ProcessEvent_0:
        MOV     A,R2
        MOV     C,0xE0 /* A   */.0
        JNC     ??GenericApp_ProcessEvent_19
//  415   {
//  416     // Send "the" message
//  417     GenericApp_SendTheMessage();//数据采集发送函数
        ; Setup parameters for call to function GenericApp_SendTheMessage
        LCALL   ??GenericApp_SendTheMessage?relay
//  418     // Setup to send message again
//  419     //!<  这里是间隔多久调用一次事件发送函数，GENERICAPP_SEND_MSG_TIMEOUT就是的，我们可以设定时间设置2s一次发数据
//  420     osal_start_timerEx( GenericApp_TaskID,
//  421                         GENERICAPP_SEND_MSG_EVT,
//  422                         GENERICAPP_SEND_MSG_TIMEOUT+(osal_rand()&0x00FF));
        ; Setup parameters for call to function osal_rand
        LCALL   ??osal_rand?relay
        ; Setup parameters for call to function osal_start_timerEx
        MOV     A,R2
        ADD     A,#-0x24
        MOV     R4,A
        CLR     A
        ADDC    A,#0x5
        MOV     R5,A
        MOV     R2,#0x1
        MOV     R3,#0x0
        MOV     DPTR,#GenericApp_TaskID
        MOVX    A,@DPTR
        MOV     R1,A
        LCALL   ??osal_start_timerEx?relay
//  423     // return unprocessed events
//  424     return (events ^ GENERICAPP_SEND_MSG_EVT);
        MOV     A,?V0 + 0
        XRL     A,#0x1
        MOV     R2,A
        MOV     R3,?V0 + 1
        SJMP    ??GenericApp_ProcessEvent_18
//  425   }
//  426 
//  427   
//  428 #if defined( IAR_ARMCM3_LM )
//  429   // Receive a message from the RTOS queue
//  430   if ( events & GENERICAPP_RTOS_MSG_EVT )
//  431   {
//  432     // Process message from RTOS queue
//  433     GenericApp_ProcessRtosMessage();
//  434 
//  435     // return unprocessed events
//  436     return (events ^ GENERICAPP_RTOS_MSG_EVT);
//  437   }
//  438 #endif
//  439 
//  440   // Discard unknown events
//  441   return 0;
??GenericApp_ProcessEvent_19:
        MOV     R2,#0x0
        MOV     R3,#0x0
??GenericApp_ProcessEvent_18:
        MOV     A,#0x9
        LCALL   ?DEALLOC_XSTACK8
        CFI CFA_XSP16 add(XSP16, 14)
        MOV     R7,#0x6
        LJMP    ?BANKED_LEAVE_XDATA
        CFI EndBlock cfiBlock4
        REQUIRE _A_P1
//  442 }

        RSEG BANKED_CODE:CODE:NOROOT(0)
?Subroutine8:
        CFI Block cfiCond5 Using cfiCommon0
        CFI NoFunction
        CFI Conditional ??CrossCallReturnLabel_15
        CFI R6 load(1, XDATA, add(CFA_XSP16, literal(-14)))
        CFI VB load(1, XDATA, add(CFA_XSP16, literal(-13)))
        CFI V0 load(1, XDATA, add(CFA_XSP16, literal(-12)))
        CFI V1 load(1, XDATA, add(CFA_XSP16, literal(-11)))
        CFI V2 load(1, XDATA, add(CFA_XSP16, literal(-10)))
        CFI V3 load(1, XDATA, add(CFA_XSP16, literal(-9)))
        CFI V4 load(1, XDATA, add(CFA_XSP16, literal(-8)))
        CFI V5 load(1, XDATA, add(CFA_XSP16, literal(-7)))
        CFI R7 load(1, XDATA, add(CFA_XSP16, literal(-6)))
        CFI ?RET_LOW load(1, XDATA, add(CFA_XSP16, literal(-5)))
        CFI ?RET_HIGH load(1, XDATA, add(CFA_XSP16, literal(-4)))
        CFI ?BRET_EXT load(1, XDATA, add(CFA_XSP16, literal(-3)))
        CFI DPL0 load(1, XDATA, add(CFA_XSP16, literal(-2)))
        CFI DPH0 load(1, XDATA, add(CFA_XSP16, literal(-1)))
        CFI CFA_SP SP+0
        CFI CFA_XSP16 add(XSP16, 23)
        CFI Block cfiCond6 Using cfiCommon0
        CFI (cfiCond6) NoFunction
        CFI (cfiCond6) Conditional ??CrossCallReturnLabel_16
        CFI (cfiCond6) R6 load(1, XDATA, add(CFA_XSP16, literal(-14)))
        CFI (cfiCond6) VB load(1, XDATA, add(CFA_XSP16, literal(-13)))
        CFI (cfiCond6) V0 load(1, XDATA, add(CFA_XSP16, literal(-12)))
        CFI (cfiCond6) V1 load(1, XDATA, add(CFA_XSP16, literal(-11)))
        CFI (cfiCond6) V2 load(1, XDATA, add(CFA_XSP16, literal(-10)))
        CFI (cfiCond6) V3 load(1, XDATA, add(CFA_XSP16, literal(-9)))
        CFI (cfiCond6) V4 load(1, XDATA, add(CFA_XSP16, literal(-8)))
        CFI (cfiCond6) V5 load(1, XDATA, add(CFA_XSP16, literal(-7)))
        CFI (cfiCond6) R7 load(1, XDATA, add(CFA_XSP16, literal(-6)))
        CFI (cfiCond6) ?RET_LOW load(1, XDATA, add(CFA_XSP16, literal(-5)))
        CFI (cfiCond6) ?RET_HIGH load(1, XDATA, add(CFA_XSP16, literal(-4)))
        CFI (cfiCond6) ?BRET_EXT load(1, XDATA, add(CFA_XSP16, literal(-3)))
        CFI (cfiCond6) DPL0 load(1, XDATA, add(CFA_XSP16, literal(-2)))
        CFI (cfiCond6) DPH0 load(1, XDATA, add(CFA_XSP16, literal(-1)))
        CFI (cfiCond6) CFA_SP SP+0
        CFI (cfiCond6) CFA_XSP16 add(XSP16, 23)
        CFI Block cfiCond7 Using cfiCommon0
        CFI (cfiCond7) NoFunction
        CFI (cfiCond7) Conditional ??CrossCallReturnLabel_17
        CFI (cfiCond7) R6 load(1, XDATA, add(CFA_XSP16, literal(-14)))
        CFI (cfiCond7) VB load(1, XDATA, add(CFA_XSP16, literal(-13)))
        CFI (cfiCond7) V0 load(1, XDATA, add(CFA_XSP16, literal(-12)))
        CFI (cfiCond7) V1 load(1, XDATA, add(CFA_XSP16, literal(-11)))
        CFI (cfiCond7) V2 load(1, XDATA, add(CFA_XSP16, literal(-10)))
        CFI (cfiCond7) V3 load(1, XDATA, add(CFA_XSP16, literal(-9)))
        CFI (cfiCond7) V4 load(1, XDATA, add(CFA_XSP16, literal(-8)))
        CFI (cfiCond7) V5 load(1, XDATA, add(CFA_XSP16, literal(-7)))
        CFI (cfiCond7) R7 load(1, XDATA, add(CFA_XSP16, literal(-6)))
        CFI (cfiCond7) ?RET_LOW load(1, XDATA, add(CFA_XSP16, literal(-5)))
        CFI (cfiCond7) ?RET_HIGH load(1, XDATA, add(CFA_XSP16, literal(-4)))
        CFI (cfiCond7) ?BRET_EXT load(1, XDATA, add(CFA_XSP16, literal(-3)))
        CFI (cfiCond7) DPL0 load(1, XDATA, add(CFA_XSP16, literal(-2)))
        CFI (cfiCond7) DPH0 load(1, XDATA, add(CFA_XSP16, literal(-1)))
        CFI (cfiCond7) CFA_SP SP+0
        CFI (cfiCond7) CFA_XSP16 add(XSP16, 23)
        CFI Block cfiPicker8 Using cfiCommon1
        CFI (cfiPicker8) NoFunction
        CFI (cfiPicker8) Picker
        MOV     DPL,A
        MOV     A,R7
        CFI EndBlock cfiCond5
        CFI EndBlock cfiCond6
        CFI EndBlock cfiCond7
        CFI EndBlock cfiPicker8
        REQUIRE ??Subroutine9_0
        ; // Fall through to label ??Subroutine9_0

        RSEG BANKED_CODE:CODE:NOROOT(0)
??Subroutine9_0:
        CFI Block cfiCond9 Using cfiCommon0
        CFI NoFunction
        CFI Conditional ??CrossCallReturnLabel_14, ??CrossCallReturnLabel_0
        CFI R6 load(1, XDATA, add(CFA_XSP16, literal(-10)))
        CFI VB load(1, XDATA, add(CFA_XSP16, literal(-9)))
        CFI V0 load(1, XDATA, add(CFA_XSP16, literal(-8)))
        CFI V1 load(1, XDATA, add(CFA_XSP16, literal(-7)))
        CFI R7 load(1, XDATA, add(CFA_XSP16, literal(-6)))
        CFI ?RET_LOW load(1, XDATA, add(CFA_XSP16, literal(-5)))
        CFI ?RET_HIGH load(1, XDATA, add(CFA_XSP16, literal(-4)))
        CFI ?BRET_EXT load(1, XDATA, add(CFA_XSP16, literal(-3)))
        CFI DPL0 load(1, XDATA, add(CFA_XSP16, literal(-2)))
        CFI DPH0 load(1, XDATA, add(CFA_XSP16, literal(-1)))
        CFI CFA_SP SP+0
        CFI CFA_XSP16 add(XSP16, 10)
        CFI Block cfiCond10 Using cfiCommon0
        CFI (cfiCond10) NoFunction
        CFI (cfiCond10) Conditional ??CrossCallReturnLabel_14, ??CrossCallReturnLabel_1
        CFI (cfiCond10) R6 load(1, XDATA, add(CFA_XSP16, literal(-10)))
        CFI (cfiCond10) VB load(1, XDATA, add(CFA_XSP16, literal(-9)))
        CFI (cfiCond10) V0 load(1, XDATA, add(CFA_XSP16, literal(-8)))
        CFI (cfiCond10) V1 load(1, XDATA, add(CFA_XSP16, literal(-7)))
        CFI (cfiCond10) R7 load(1, XDATA, add(CFA_XSP16, literal(-6)))
        CFI (cfiCond10) ?RET_LOW load(1, XDATA, add(CFA_XSP16, literal(-5)))
        CFI (cfiCond10) ?RET_HIGH load(1, XDATA, add(CFA_XSP16, literal(-4)))
        CFI (cfiCond10) ?BRET_EXT load(1, XDATA, add(CFA_XSP16, literal(-3)))
        CFI (cfiCond10) DPL0 load(1, XDATA, add(CFA_XSP16, literal(-2)))
        CFI (cfiCond10) DPH0 load(1, XDATA, add(CFA_XSP16, literal(-1)))
        CFI (cfiCond10) CFA_SP SP+0
        CFI (cfiCond10) CFA_XSP16 add(XSP16, 10)
        CFI Block cfiCond11 Using cfiCommon0
        CFI (cfiCond11) NoFunction
        CFI (cfiCond11) Conditional ??CrossCallReturnLabel_15
        CFI (cfiCond11) R6 load(1, XDATA, add(CFA_XSP16, literal(-14)))
        CFI (cfiCond11) VB load(1, XDATA, add(CFA_XSP16, literal(-13)))
        CFI (cfiCond11) V0 load(1, XDATA, add(CFA_XSP16, literal(-12)))
        CFI (cfiCond11) V1 load(1, XDATA, add(CFA_XSP16, literal(-11)))
        CFI (cfiCond11) V2 load(1, XDATA, add(CFA_XSP16, literal(-10)))
        CFI (cfiCond11) V3 load(1, XDATA, add(CFA_XSP16, literal(-9)))
        CFI (cfiCond11) V4 load(1, XDATA, add(CFA_XSP16, literal(-8)))
        CFI (cfiCond11) V5 load(1, XDATA, add(CFA_XSP16, literal(-7)))
        CFI (cfiCond11) R7 load(1, XDATA, add(CFA_XSP16, literal(-6)))
        CFI (cfiCond11) ?RET_LOW load(1, XDATA, add(CFA_XSP16, literal(-5)))
        CFI (cfiCond11) ?RET_HIGH load(1, XDATA, add(CFA_XSP16, literal(-4)))
        CFI (cfiCond11) ?BRET_EXT load(1, XDATA, add(CFA_XSP16, literal(-3)))
        CFI (cfiCond11) DPL0 load(1, XDATA, add(CFA_XSP16, literal(-2)))
        CFI (cfiCond11) DPH0 load(1, XDATA, add(CFA_XSP16, literal(-1)))
        CFI (cfiCond11) CFA_SP SP+0
        CFI (cfiCond11) CFA_XSP16 add(XSP16, 23)
        CFI Block cfiCond12 Using cfiCommon0
        CFI (cfiCond12) NoFunction
        CFI (cfiCond12) Conditional ??CrossCallReturnLabel_16
        CFI (cfiCond12) R6 load(1, XDATA, add(CFA_XSP16, literal(-14)))
        CFI (cfiCond12) VB load(1, XDATA, add(CFA_XSP16, literal(-13)))
        CFI (cfiCond12) V0 load(1, XDATA, add(CFA_XSP16, literal(-12)))
        CFI (cfiCond12) V1 load(1, XDATA, add(CFA_XSP16, literal(-11)))
        CFI (cfiCond12) V2 load(1, XDATA, add(CFA_XSP16, literal(-10)))
        CFI (cfiCond12) V3 load(1, XDATA, add(CFA_XSP16, literal(-9)))
        CFI (cfiCond12) V4 load(1, XDATA, add(CFA_XSP16, literal(-8)))
        CFI (cfiCond12) V5 load(1, XDATA, add(CFA_XSP16, literal(-7)))
        CFI (cfiCond12) R7 load(1, XDATA, add(CFA_XSP16, literal(-6)))
        CFI (cfiCond12) ?RET_LOW load(1, XDATA, add(CFA_XSP16, literal(-5)))
        CFI (cfiCond12) ?RET_HIGH load(1, XDATA, add(CFA_XSP16, literal(-4)))
        CFI (cfiCond12) ?BRET_EXT load(1, XDATA, add(CFA_XSP16, literal(-3)))
        CFI (cfiCond12) DPL0 load(1, XDATA, add(CFA_XSP16, literal(-2)))
        CFI (cfiCond12) DPH0 load(1, XDATA, add(CFA_XSP16, literal(-1)))
        CFI (cfiCond12) CFA_SP SP+0
        CFI (cfiCond12) CFA_XSP16 add(XSP16, 23)
        CFI Block cfiCond13 Using cfiCommon0
        CFI (cfiCond13) NoFunction
        CFI (cfiCond13) Conditional ??CrossCallReturnLabel_17
        CFI (cfiCond13) R6 load(1, XDATA, add(CFA_XSP16, literal(-14)))
        CFI (cfiCond13) VB load(1, XDATA, add(CFA_XSP16, literal(-13)))
        CFI (cfiCond13) V0 load(1, XDATA, add(CFA_XSP16, literal(-12)))
        CFI (cfiCond13) V1 load(1, XDATA, add(CFA_XSP16, literal(-11)))
        CFI (cfiCond13) V2 load(1, XDATA, add(CFA_XSP16, literal(-10)))
        CFI (cfiCond13) V3 load(1, XDATA, add(CFA_XSP16, literal(-9)))
        CFI (cfiCond13) V4 load(1, XDATA, add(CFA_XSP16, literal(-8)))
        CFI (cfiCond13) V5 load(1, XDATA, add(CFA_XSP16, literal(-7)))
        CFI (cfiCond13) R7 load(1, XDATA, add(CFA_XSP16, literal(-6)))
        CFI (cfiCond13) ?RET_LOW load(1, XDATA, add(CFA_XSP16, literal(-5)))
        CFI (cfiCond13) ?RET_HIGH load(1, XDATA, add(CFA_XSP16, literal(-4)))
        CFI (cfiCond13) ?BRET_EXT load(1, XDATA, add(CFA_XSP16, literal(-3)))
        CFI (cfiCond13) DPL0 load(1, XDATA, add(CFA_XSP16, literal(-2)))
        CFI (cfiCond13) DPH0 load(1, XDATA, add(CFA_XSP16, literal(-1)))
        CFI (cfiCond13) CFA_SP SP+0
        CFI (cfiCond13) CFA_XSP16 add(XSP16, 23)
        CFI Block cfiPicker14 Using cfiCommon1
        CFI (cfiPicker14) NoFunction
        CFI (cfiPicker14) Picker
        ADDC    A,#0x0
        MOV     DPH,A
        MOVX    A,@DPTR
        RET
        CFI EndBlock cfiCond9
        CFI EndBlock cfiCond10
        CFI EndBlock cfiCond11
        CFI EndBlock cfiCond12
        CFI EndBlock cfiCond13
        CFI EndBlock cfiPicker14

        RSEG BANKED_CODE:CODE:NOROOT(0)
?Subroutine5:
        CFI Block cfiCond15 Using cfiCommon0
        CFI NoFunction
        CFI Conditional ??CrossCallReturnLabel_2
        CFI DPL0 Frame(CFA_SP, 4)
        CFI DPH0 Frame(CFA_SP, 5)
        CFI CFA_SP SP+-5
        CFI CFA_XSP16 add(XSP16, 29)
        CFI Block cfiCond16 Using cfiCommon0
        CFI (cfiCond16) NoFunction
        CFI (cfiCond16) Conditional ??CrossCallReturnLabel_3
        CFI (cfiCond16) R6 load(1, XDATA, add(CFA_XSP16, literal(-14)))
        CFI (cfiCond16) VB load(1, XDATA, add(CFA_XSP16, literal(-13)))
        CFI (cfiCond16) V0 load(1, XDATA, add(CFA_XSP16, literal(-12)))
        CFI (cfiCond16) V1 load(1, XDATA, add(CFA_XSP16, literal(-11)))
        CFI (cfiCond16) V2 load(1, XDATA, add(CFA_XSP16, literal(-10)))
        CFI (cfiCond16) V3 load(1, XDATA, add(CFA_XSP16, literal(-9)))
        CFI (cfiCond16) V4 load(1, XDATA, add(CFA_XSP16, literal(-8)))
        CFI (cfiCond16) V5 load(1, XDATA, add(CFA_XSP16, literal(-7)))
        CFI (cfiCond16) R7 load(1, XDATA, add(CFA_XSP16, literal(-6)))
        CFI (cfiCond16) ?RET_LOW load(1, XDATA, add(CFA_XSP16, literal(-5)))
        CFI (cfiCond16) ?RET_HIGH load(1, XDATA, add(CFA_XSP16, literal(-4)))
        CFI (cfiCond16) ?BRET_EXT load(1, XDATA, add(CFA_XSP16, literal(-3)))
        CFI (cfiCond16) DPL0 load(1, XDATA, add(CFA_XSP16, literal(-2)))
        CFI (cfiCond16) DPH0 load(1, XDATA, add(CFA_XSP16, literal(-1)))
        CFI (cfiCond16) CFA_SP SP+0
        CFI (cfiCond16) CFA_XSP16 add(XSP16, 23)
        CFI Block cfiCond17 Using cfiCommon0
        CFI (cfiCond17) NoFunction
        CFI (cfiCond17) Conditional ??CrossCallReturnLabel_4
        CFI (cfiCond17) R6 load(1, XDATA, add(CFA_XSP16, literal(-14)))
        CFI (cfiCond17) VB load(1, XDATA, add(CFA_XSP16, literal(-13)))
        CFI (cfiCond17) V0 load(1, XDATA, add(CFA_XSP16, literal(-12)))
        CFI (cfiCond17) V1 load(1, XDATA, add(CFA_XSP16, literal(-11)))
        CFI (cfiCond17) V2 load(1, XDATA, add(CFA_XSP16, literal(-10)))
        CFI (cfiCond17) V3 load(1, XDATA, add(CFA_XSP16, literal(-9)))
        CFI (cfiCond17) V4 load(1, XDATA, add(CFA_XSP16, literal(-8)))
        CFI (cfiCond17) V5 load(1, XDATA, add(CFA_XSP16, literal(-7)))
        CFI (cfiCond17) R7 load(1, XDATA, add(CFA_XSP16, literal(-6)))
        CFI (cfiCond17) ?RET_LOW load(1, XDATA, add(CFA_XSP16, literal(-5)))
        CFI (cfiCond17) ?RET_HIGH load(1, XDATA, add(CFA_XSP16, literal(-4)))
        CFI (cfiCond17) ?BRET_EXT load(1, XDATA, add(CFA_XSP16, literal(-3)))
        CFI (cfiCond17) DPL0 load(1, XDATA, add(CFA_XSP16, literal(-2)))
        CFI (cfiCond17) DPH0 load(1, XDATA, add(CFA_XSP16, literal(-1)))
        CFI (cfiCond17) CFA_SP SP+0
        CFI (cfiCond17) CFA_XSP16 add(XSP16, 23)
        CFI Block cfiPicker18 Using cfiCommon1
        CFI (cfiPicker18) NoFunction
        CFI (cfiPicker18) Picker
        MOVX    @DPTR,A
        ; Setup parameters for call to function HalUARTOpen
        MOV     DPL,?XSP + 0
        MOV     DPH,?XSP + 1
        RET
        CFI EndBlock cfiCond15
        CFI EndBlock cfiCond16
        CFI EndBlock cfiCond17
        CFI EndBlock cfiPicker18
//  443 
//  444 /*********************************************************************
//  445  * Event Generation Functions
//  446  */
//  447 
//  448 /*********************************************************************
//  449  * @fn      GenericApp_ProcessZDOMsgs()
//  450  *
//  451  * @brief   Process response messages
//  452  *
//  453  * @param   none
//  454  *
//  455  * @return  none
//  456  */
//  457 static void GenericApp_ProcessZDOMsgs( zdoIncomingMsg_t *inMsg )
//  458 {
//  459   switch ( inMsg->clusterID )
//  460   {
//  461     case End_Device_Bind_rsp://请求是发给我们的 Coordinator
//  462       if ( ZDO_ParseBindRsp( inMsg ) == ZSuccess )//請求绑定
//  463       {
//  464         // Light LED
//  465         HalLedSet( HAL_LED_4, HAL_LED_MODE_ON );//绑定成功
//  466       }
//  467 #if defined( BLINK_LEDS )
//  468       else
//  469       {
//  470         // Flash LED to show failure
//  471         HalLedSet ( HAL_LED_4, HAL_LED_MODE_FLASH );//绑定失败
//  472       }
//  473 #endif
//  474       break;
//  475 
//  476     case Match_Desc_rsp:
//  477       {
//  478         ZDO_ActiveEndpointRsp_t *pRsp = ZDO_ParseEPListRsp( inMsg );
//  479         if ( pRsp )
//  480         {
//  481           if ( pRsp->status == ZSuccess && pRsp->cnt )
//  482           {
//  483             GenericApp_DstAddr.addrMode = (afAddrMode_t)Addr16Bit;
//  484             GenericApp_DstAddr.addr.shortAddr = pRsp->nwkAddr;
//  485             // Take the first endpoint, Can be changed to search through endpoints
//  486             GenericApp_DstAddr.endPoint = pRsp->epList[0];
//  487 
//  488             // Light LED
//  489             HalLedSet( HAL_LED_4, HAL_LED_MODE_ON );
//  490             
//  491           }
//  492           osal_mem_free( pRsp );
//  493         }
//  494       }
//  495       break;
//  496   }
//  497 }
//  498 
//  499 /*********************************************************************
//  500  * @fn      GenericApp_HandleKeys
//  501  *
//  502  * @brief   Handles all key events for this device.
//  503  *
//  504  * @param   shift - true if in shift/alt.
//  505  * @param   keys - bit field for key events. Valid entries:
//  506  *                 HAL_KEY_SW_4
//  507  *                 HAL_KEY_SW_3
//  508  *                 HAL_KEY_SW_2
//  509  *                 HAL_KEY_SW_1
//  510  *
//  511  * @return  none
//  512  */
//  513 static void GenericApp_HandleKeys( uint8 shift, uint8 keys )
//  514 {
//  515   zAddrType_t dstAddr;
//  516 
//  517   // Shift is used to make each button/switch dual purpose.
//  518   if ( shift )
//  519   {
//  520     if ( keys & HAL_KEY_SW_1 )
//  521     {
//  522     }
//  523     if ( keys & HAL_KEY_SW_2 )
//  524     {
//  525     }
//  526     if ( keys & HAL_KEY_SW_3 )
//  527     {
//  528     }
//  529     if ( keys & HAL_KEY_SW_4 )
//  530     {
//  531     }
//  532   }
//  533   else
//  534   {
//  535     if ( keys & HAL_KEY_SW_1 )
//  536     {
//  537       // Since SW1 isn't used for anything else in this application...
//  538 #if defined( SWITCH1_BIND )
//  539       // we can use SW1 to simulate SW2 for devices that only have one switch,
//  540       keys |= HAL_KEY_SW_2;
//  541 #elif defined( SWITCH1_MATCH )
//  542       // or use SW1 to simulate SW4 for devices that only have one switch
//  543       keys |= HAL_KEY_SW_4;
//  544 #endif
//  545     }
//  546 
//  547     if ( keys & HAL_KEY_SW_2 )
//  548     {
//  549       HalLedSet ( HAL_LED_4, HAL_LED_MODE_OFF );
//  550 
//  551       // Initiate an End Device Bind Request for the mandatory endpoint
//  552       dstAddr.addrMode = Addr16Bit;
//  553       dstAddr.addr.shortAddr = 0x0000; // Coordinator
//  554       ZDP_EndDeviceBindReq( &dstAddr, NLME_GetShortAddr(),
//  555                             GenericApp_epDesc.endPoint,
//  556                             GENERICAPP_PROFID,
//  557                             GENERICAPP_MAX_CLUSTERS, (cId_t *)GenericApp_ClusterList,
//  558                             GENERICAPP_MAX_CLUSTERS, (cId_t *)GenericApp_ClusterList,
//  559                             FALSE );
//  560     }
//  561 
//  562     if ( keys & HAL_KEY_SW_3 )
//  563     {
//  564     }
//  565 
//  566     if ( keys & HAL_KEY_SW_4 )
//  567     {
//  568       HalLedSet ( HAL_LED_4, HAL_LED_MODE_OFF );
//  569       // Initiate a Match Description Request (Service Discovery)
//  570       dstAddr.addrMode = AddrBroadcast;
//  571       dstAddr.addr.shortAddr = NWK_BROADCAST_SHORTADDR;
//  572       ZDP_MatchDescReq( &dstAddr, NWK_BROADCAST_SHORTADDR,
//  573                         GENERICAPP_PROFID,
//  574                         GENERICAPP_MAX_CLUSTERS, (cId_t *)GenericApp_ClusterList,
//  575                         GENERICAPP_MAX_CLUSTERS, (cId_t *)GenericApp_ClusterList,
//  576                         FALSE );
//  577     }
//  578   }
//  579 }
//  580 
//  581 /*********************************************************************
//  582  * LOCAL FUNCTIONS
//  583  */
//  584 
//  585 /*********************************************************************
//  586  * @fn      GenericApp_MessageMSGCB
//  587  *
//  588  * @brief   Data message processor callback.  This function processes
//  589  *          any incoming data - probably from other devices.  So, based
//  590  *          on cluster ID, perform the intended action.
//  591  *
//  592  * @param   none
//  593  *
//  594  * @return  none
//  595  */
//  596 

        RSEG XDATA_Z:XDATA:NOROOT(0)
        DATA16
//  597 int iRelayState = 0;
iRelayState:
        DS 2
        REQUIRE __INIT_XDATA_Z
//  598 
//  599 static void GenericApp_MessageMSGCB( afIncomingMSGPacket_t *pkt )
//  600 {
//  601  // unsigned char cGetDate[10];//获取协调器发来的命令
//  602   switch ( pkt->clusterId )
//  603   {
//  604     case GENERICAPP_CLUSTERID:
//  605       HalUARTWrite(0, pkt->cmd.Data, pkt->cmd.DataLength);  //!< 输出接收到的数据,通过串口发送
//  606       //osal_memcpy(cGetDate,pkt->cmd.Data, pkt->cmd.DataLength);
//  607       if(ENDNUM == 3)
//  608       {
//  609         Delay_ms(5);
//  610         switch(controlRelay(pkt->cmd.Data))//!< 判断协调器是否对终端的继电器进行操作
//  611       {
//  612         case 0:
//  613           RELAY  = 1;  //!< 继电器关闭状态
//  614           iRelayState = 1;
//  615           break;
//  616         case 1:
//  617           RELAY  = 0;  //!< 继电器打开状态
//  618           iRelayState = 0;
//  619           break;
//  620         default:
//  621           break;
//  622       }
//  623       break;
//  624       }
//  625       
//  626   }
//  627   if(ENDNUM == 4)
//  628   {
//  629     controlBeer(pkt->cmd.Data);
//  630   }
//  631   if(ENDNUM == 5)
//  632   {
//  633     controlMotor(pkt->cmd.Data);
//  634   }
//  635 
//  636 }
//  637 

        RSEG BANKED_CODE:CODE:NOROOT(0)
//  638 void controlBeer(unsigned char* v_MsgData)
controlBeer:
        CFI Block cfiBlock19 Using cfiCommon0
        CFI Function controlBeer
        CODE
//  639 {
        FUNCALL controlBeer, Delay_ms
        LOCFRAME ISTACK, 0, STACK
        LOCFRAME PSTACK, 0, STACK
        LOCFRAME XSTACK, 9, STACK
        LOCFRAME IOVERLAY, 0, STATIC
        LOCFRAME DOVERLAY, 0, STATIC
        ARGFRAME ISTACK, 0, STACK
        ARGFRAME PSTACK, 0, STACK
        ARGFRAME XSTACK, 9, STACK
        ARGFRAME IOVERLAY, 0, STATIC
        ARGFRAME DOVERLAY, 0, STATIC
        FUNCALL controlBeer, Delay_ms
        LOCFRAME ISTACK, 0, STACK
        LOCFRAME PSTACK, 0, STACK
        LOCFRAME XSTACK, 9, STACK
        LOCFRAME IOVERLAY, 0, STATIC
        LOCFRAME DOVERLAY, 0, STATIC
        ARGFRAME ISTACK, 0, STACK
        ARGFRAME PSTACK, 0, STACK
        ARGFRAME XSTACK, 9, STACK
        ARGFRAME IOVERLAY, 0, STATIC
        ARGFRAME DOVERLAY, 0, STATIC
        MOV     A,#-0x9
        LCALL   ?BANKED_ENTER_XDATA
        CFI DPH0 load(1, XDATA, add(CFA_XSP16, literal(-1)))
        CFI DPL0 load(1, XDATA, add(CFA_XSP16, literal(-2)))
        CFI ?BRET_EXT load(1, XDATA, add(CFA_XSP16, literal(-3)))
        CFI ?RET_HIGH load(1, XDATA, add(CFA_XSP16, literal(-4)))
        CFI ?RET_LOW load(1, XDATA, add(CFA_XSP16, literal(-5)))
        CFI R7 load(1, XDATA, add(CFA_XSP16, literal(-6)))
        CFI V0 load(1, XDATA, add(CFA_XSP16, literal(-7)))
        CFI VB load(1, XDATA, add(CFA_XSP16, literal(-8)))
        CFI R6 load(1, XDATA, add(CFA_XSP16, literal(-9)))
        CFI CFA_SP SP+0
        CFI CFA_XSP16 add(XSP16, 9)
        ; Saved register size: 9
        ; Auto size: 0
        MOV     A,R2
        MOV     R6,A
        MOV     A,R3
        MOV     R7,A
//  640   if(v_MsgData == NULL)
        MOV     A,R6
        ORL     A,R7
        JZ      ??controlBeer_0
//  641   {
//  642     return;
//  643   }
//  644   if(v_MsgData[0] == 'y' && v_MsgData[1] == 'e' &&v_MsgData[2] == 's')
        MOV     DPL,R6
        MOV     DPH,R7
        MOVX    A,@DPTR
        XRL     A,#0x79
        JNZ     ??controlBeer_1
        INC     DPTR
        MOVX    A,@DPTR
        XRL     A,#0x65
        JNZ     ??controlBeer_0
        MOV     DPL,R6
        MOV     DPH,R7
        INC     DPTR
        INC     DPTR
        MOVX    A,@DPTR
        XRL     A,#0x73
        JNZ     ??controlBeer_0
//  645   {
//  646     
//  647     TIMER_START();        //!< 检测到异常气体/火焰时蜂鸣器响
        ORL     0xe4,#0x3
//  648     BEEP_PIN = 1;
        SETB    0x80.7
//  649     Delay_ms(500);
        ; Setup parameters for call to function Delay_ms
        MOV     R2,#-0xc
        MOV     R3,#0x1
        LCALL   ??Delay_ms?relay
//  650     TIMER_STOP();         //!< 气体正常/无火焰不响
        ANL     0xe4,#0xfc
//  651     Delay_ms(500);
        ; Setup parameters for call to function Delay_ms
        MOV     R2,#-0xc
        MOV     R3,#0x1
        LCALL   ??Delay_ms?relay
//  652   }
//  653   if(v_MsgData[0] == 'n' && v_MsgData[1] == 'o' &&v_MsgData[2] == 'o')
??controlBeer_1:
        MOV     DPL,R6
        MOV     DPH,R7
        MOVX    A,@DPTR
        XRL     A,#0x6e
        JNZ     ??controlBeer_0
        INC     DPTR
        MOVX    A,@DPTR
        XRL     A,#0x6f
        JNZ     ??controlBeer_0
        MOV     DPL,R6
        MOV     DPH,R7
        INC     DPTR
        INC     DPTR
        MOVX    A,@DPTR
        XRL     A,#0x6f
        JNZ     ??controlBeer_0
//  654   {
//  655     TIMER_STOP();         //!< 气体正常/无火焰不响
        ANL     0xe4,#0xfc
//  656   }
??controlBeer_0:
        LJMP    ?Subroutine2 & 0xFFFF
        CFI EndBlock cfiBlock19
        REQUIRE T1CTL
        REQUIRE _A_P0
//  657 }
//  658 

        RSEG XDATA_I:XDATA:NOROOT(0)
//  659 int iMotorFlag = 1;
iMotorFlag:
        DATA16
        DS 2
        REQUIRE `?<Initializer for iMotorFlag>`
        REQUIRE __INIT_XDATA_I
//  660 
//  661 //!< 电机的判断

        RSEG BANKED_CODE:CODE:NOROOT(0)
//  662 void controlMotor(unsigned char* v_MessageData)
controlMotor:
        CFI Block cfiBlock20 Using cfiCommon0
        CFI Function controlMotor
        CODE
//  663 {
        FUNCALL controlMotor, Delay_ms
        LOCFRAME ISTACK, 0, STACK
        LOCFRAME PSTACK, 0, STACK
        LOCFRAME XSTACK, 10, STACK
        LOCFRAME IOVERLAY, 0, STATIC
        LOCFRAME DOVERLAY, 0, STATIC
        ARGFRAME ISTACK, 0, STACK
        ARGFRAME PSTACK, 0, STACK
        ARGFRAME XSTACK, 10, STACK
        ARGFRAME IOVERLAY, 0, STATIC
        ARGFRAME DOVERLAY, 0, STATIC
        FUNCALL controlMotor, HalUARTWrite
        LOCFRAME ISTACK, 0, STACK
        LOCFRAME PSTACK, 0, STACK
        LOCFRAME XSTACK, 10, STACK
        LOCFRAME IOVERLAY, 0, STATIC
        LOCFRAME DOVERLAY, 0, STATIC
        ARGFRAME ISTACK, 0, STACK
        ARGFRAME PSTACK, 0, STACK
        ARGFRAME XSTACK, 10, STACK
        ARGFRAME IOVERLAY, 0, STATIC
        ARGFRAME DOVERLAY, 0, STATIC
        FUNCALL controlMotor, MotorDoProcessedShun
        LOCFRAME ISTACK, 0, STACK
        LOCFRAME PSTACK, 0, STACK
        LOCFRAME XSTACK, 10, STACK
        LOCFRAME IOVERLAY, 0, STATIC
        LOCFRAME DOVERLAY, 0, STATIC
        ARGFRAME ISTACK, 0, STACK
        ARGFRAME PSTACK, 0, STACK
        ARGFRAME XSTACK, 10, STACK
        ARGFRAME IOVERLAY, 0, STATIC
        ARGFRAME DOVERLAY, 0, STATIC
        FUNCALL controlMotor, MotorDoProcessedData
        LOCFRAME ISTACK, 0, STACK
        LOCFRAME PSTACK, 0, STACK
        LOCFRAME XSTACK, 10, STACK
        LOCFRAME IOVERLAY, 0, STATIC
        LOCFRAME DOVERLAY, 0, STATIC
        ARGFRAME ISTACK, 0, STACK
        ARGFRAME PSTACK, 0, STACK
        ARGFRAME XSTACK, 10, STACK
        ARGFRAME IOVERLAY, 0, STATIC
        ARGFRAME DOVERLAY, 0, STATIC
        FUNCALL controlMotor, HalUARTWrite
        LOCFRAME ISTACK, 0, STACK
        LOCFRAME PSTACK, 0, STACK
        LOCFRAME XSTACK, 10, STACK
        LOCFRAME IOVERLAY, 0, STATIC
        LOCFRAME DOVERLAY, 0, STATIC
        ARGFRAME ISTACK, 0, STACK
        ARGFRAME PSTACK, 0, STACK
        ARGFRAME XSTACK, 10, STACK
        ARGFRAME IOVERLAY, 0, STATIC
        ARGFRAME DOVERLAY, 0, STATIC
        FUNCALL controlMotor, MotorDoProcessedNi
        LOCFRAME ISTACK, 0, STACK
        LOCFRAME PSTACK, 0, STACK
        LOCFRAME XSTACK, 10, STACK
        LOCFRAME IOVERLAY, 0, STATIC
        LOCFRAME DOVERLAY, 0, STATIC
        ARGFRAME ISTACK, 0, STACK
        ARGFRAME PSTACK, 0, STACK
        ARGFRAME XSTACK, 10, STACK
        ARGFRAME IOVERLAY, 0, STATIC
        ARGFRAME DOVERLAY, 0, STATIC
        FUNCALL controlMotor, MotorDoProcessedData
        LOCFRAME ISTACK, 0, STACK
        LOCFRAME PSTACK, 0, STACK
        LOCFRAME XSTACK, 10, STACK
        LOCFRAME IOVERLAY, 0, STATIC
        LOCFRAME DOVERLAY, 0, STATIC
        ARGFRAME ISTACK, 0, STACK
        ARGFRAME PSTACK, 0, STACK
        ARGFRAME XSTACK, 10, STACK
        ARGFRAME IOVERLAY, 0, STATIC
        ARGFRAME DOVERLAY, 0, STATIC
        MOV     A,#-0xa
        LCALL   ?BANKED_ENTER_XDATA
        CFI DPH0 load(1, XDATA, add(CFA_XSP16, literal(-1)))
        CFI DPL0 load(1, XDATA, add(CFA_XSP16, literal(-2)))
        CFI ?BRET_EXT load(1, XDATA, add(CFA_XSP16, literal(-3)))
        CFI ?RET_HIGH load(1, XDATA, add(CFA_XSP16, literal(-4)))
        CFI ?RET_LOW load(1, XDATA, add(CFA_XSP16, literal(-5)))
        CFI R7 load(1, XDATA, add(CFA_XSP16, literal(-6)))
        CFI V1 load(1, XDATA, add(CFA_XSP16, literal(-7)))
        CFI V0 load(1, XDATA, add(CFA_XSP16, literal(-8)))
        CFI VB load(1, XDATA, add(CFA_XSP16, literal(-9)))
        CFI R6 load(1, XDATA, add(CFA_XSP16, literal(-10)))
        CFI CFA_SP SP+0
        CFI CFA_XSP16 add(XSP16, 10)
        ; Saved register size: 10
        ; Auto size: 0
        MOV     A,R2
        MOV     R6,A
        MOV     A,R3
        MOV     R7,A
//  664   int i = 0;
//  665   Delay_ms(50);   //!< 等待系统稳定
        ; Setup parameters for call to function Delay_ms
        MOV     R2,#0x32
        MOV     R3,#0x0
        LCALL   ??Delay_ms?relay
//  666   if(v_MessageData[0] == 's' && v_MessageData[1] == 'h'&& v_MessageData[2] == 'u' && v_MessageData[3] == 'n')
        MOV     DPL,R6
        MOV     DPH,R7
        MOVX    A,@DPTR
        XRL     A,#0x73
        JNZ     ??controlMotor_0
        INC     DPTR
        MOVX    A,@DPTR
        XRL     A,#0x68
        JZ      $+5
        LJMP    ??controlMotor_1 & 0xFFFF
        MOV     DPL,R6
        MOV     DPH,R7
        INC     DPTR
        INC     DPTR
        MOVX    A,@DPTR
        XRL     A,#0x75
        JZ      $+5
        LJMP    ??controlMotor_1 & 0xFFFF
        MOV     DPL,R6
        MOV     DPH,R7
        INC     DPTR
        INC     DPTR
        INC     DPTR
        MOVX    A,@DPTR
        XRL     A,#0x6e
        JZ      $+5
        LJMP    ??controlMotor_1 & 0xFFFF
//  667   {
//  668     //!< 执行顺转
//  669     if(iMotorFlag == 1)
        MOV     DPTR,#iMotorFlag
        MOVX    A,@DPTR
        XRL     A,#0x1
        JNZ     ??controlMotor_2
        INC     DPTR
        MOVX    A,@DPTR
??controlMotor_2:
        JZ      $+5
        LJMP    ??controlMotor_1 & 0xFFFF
//  670     {
//  671       HalUARTWrite(0,"456SHUN\r\n",10);
        ; Setup parameters for call to function HalUARTWrite
        MOV     R4,#0xa
        MOV     R5,#0x0
        MOV     R2,#`?<Constant "456SHUN\\r\\n">` & 0xff
        MOV     R3,#(`?<Constant "456SHUN\\r\\n">` >> 8) & 0xff
        MOV     R1,#0x0
        LCALL   ??HalUARTWrite?relay
//  672       for(i=0;i<1000;i++)
        MOV     ?V0 + 0,#-0x18
        MOV     ?V0 + 1,#0x3
//  673       {
//  674         MotorDoProcessedShun(ucSpeed); //!< 顺时针转动
??controlMotor_3:
        ; Setup parameters for call to function MotorDoProcessedShun
        MOV     DPTR,#ucSpeed
        MOVX    A,@DPTR
        MOV     R1,A
        LCALL   ??MotorDoProcessedShun?relay
//  675       } 
        MOV     A,?V0 + 0
        ADD     A,#-0x1
        MOV     ?V0 + 0,A
        MOV     A,?V0 + 1
        ADDC    A,#-0x1
        MOV     ?V0 + 1,A
        MOV     A,?V0 + 0
        ORL     A,?V0 + 1
        JNZ     ??controlMotor_3
//  676       iMotorFlag = 0;
        MOV     DPTR,#iMotorFlag
        CLR     A
        MOVX    @DPTR,A
        INC     DPTR
        MOVX    @DPTR,A
//  677       MotorDoProcessedStop();        //!< 停止转动
        ; Setup parameters for call to function MotorDoProcessedData
        MOV     R1,A
        LCALL   ??MotorDoProcessedData?relay
//  678       HalUARTWrite(0,"789SHUN\r\n",10);
        ; Setup parameters for call to function HalUARTWrite
        MOV     R4,#0xa
        MOV     R5,#0x0
        MOV     R2,#`?<Constant "789SHUN\\r\\n">` & 0xff
        MOV     R3,#(`?<Constant "789SHUN\\r\\n">` >> 8) & 0xff
        MOV     R1,#0x0
        LCALL   ??HalUARTWrite?relay
//  679      }
//  680   }
//  681   if(v_MessageData[0] == 'n' && v_MessageData[1] == 'i')
??controlMotor_0:
        MOV     DPL,R6
        MOV     DPH,R7
        MOVX    A,@DPTR
        XRL     A,#0x6e
        JNZ     ??controlMotor_1
        INC     DPTR
        MOVX    A,@DPTR
        XRL     A,#0x69
        JNZ     ??controlMotor_1
//  682   {
//  683     if(iMotorFlag == 0)
        MOV     DPTR,#iMotorFlag
        MOVX    A,@DPTR
        MOV     R0,A
        INC     DPTR
        MOVX    A,@DPTR
        MOV     R1,A
        MOV     A,R0
        ORL     A,R1
        JNZ     ??controlMotor_1
//  684     {
//  685       for(i=0;i<1000;i++)
        MOV     R6,#-0x18
        MOV     R7,#0x3
//  686       {
//  687         MotorDoProcessedNi(5); //!< 顺时针转动
??controlMotor_4:
        ; Setup parameters for call to function MotorDoProcessedNi
        MOV     R1,#0x5
        LCALL   ??MotorDoProcessedNi?relay
//  688       } 
        MOV     A,R6
        ADD     A,#-0x1
        DEC     R6
        MOV     A,R7
        ADDC    A,#-0x1
        MOV     R7,A
        MOV     A,R6
        ORL     A,R7
        JNZ     ??controlMotor_4
//  689       iMotorFlag = 1;
        MOV     DPTR,#iMotorFlag
        MOV     A,#0x1
        MOVX    @DPTR,A
        INC     DPTR
        CLR     A
        MOVX    @DPTR,A
//  690       MotorDoProcessedStop();        //!< 停止转动 
        ; Setup parameters for call to function MotorDoProcessedData
        MOV     R1,A
        LCALL   ??MotorDoProcessedData?relay
//  691     }
//  692       
//  693   }
//  694 }
??controlMotor_1:
        SJMP    ??Subroutine10_0
        CFI EndBlock cfiBlock20

        RSEG BANKED_CODE:CODE:NOROOT(0)
?Subroutine1:
        CFI Block cfiBlock21 Using cfiCommon0
        CFI NoFunction
        CFI CFA_SP SP+0
        CFI CFA_XSP16 add(XSP16, 138)
        CFI VB load(1, XDATA, add(CFA_XSP16, literal(-9)))
        CFI DPL0 load(1, XDATA, add(CFA_XSP16, literal(-2)))
        CFI DPH0 load(1, XDATA, add(CFA_XSP16, literal(-1)))
        CFI R6 load(1, XDATA, add(CFA_XSP16, literal(-10)))
        CFI R7 load(1, XDATA, add(CFA_XSP16, literal(-6)))
        CFI V0 load(1, XDATA, add(CFA_XSP16, literal(-8)))
        CFI V1 load(1, XDATA, add(CFA_XSP16, literal(-7)))
        CFI ?BRET_EXT load(1, XDATA, add(CFA_XSP16, literal(-3)))
        CFI ?RET_HIGH load(1, XDATA, add(CFA_XSP16, literal(-4)))
        CFI ?RET_LOW load(1, XDATA, add(CFA_XSP16, literal(-5)))
        CFI Invalid
        LCALL   ?DEALLOC_XSTACK8
        CFI EndBlock cfiBlock21
        REQUIRE ??Subroutine10_0
        ; // Fall through to label ??Subroutine10_0

        RSEG BANKED_CODE:CODE:NOROOT(0)
??Subroutine10_0:
        CFI Block cfiBlock22 Using cfiCommon0
        CFI NoFunction
        CFI CFA_SP SP+0
        CFI CFA_XSP16 add(XSP16, 10)
        CFI VB load(1, XDATA, add(CFA_XSP16, literal(-9)))
        CFI DPL0 load(1, XDATA, add(CFA_XSP16, literal(-2)))
        CFI DPH0 load(1, XDATA, add(CFA_XSP16, literal(-1)))
        CFI R6 load(1, XDATA, add(CFA_XSP16, literal(-10)))
        CFI R7 load(1, XDATA, add(CFA_XSP16, literal(-6)))
        CFI V0 load(1, XDATA, add(CFA_XSP16, literal(-8)))
        CFI V1 load(1, XDATA, add(CFA_XSP16, literal(-7)))
        CFI ?BRET_EXT load(1, XDATA, add(CFA_XSP16, literal(-3)))
        CFI ?RET_HIGH load(1, XDATA, add(CFA_XSP16, literal(-4)))
        CFI ?RET_LOW load(1, XDATA, add(CFA_XSP16, literal(-5)))
        MOV     R7,#0x2
        LJMP    ?BANKED_LEAVE_XDATA
        CFI EndBlock cfiBlock22
//  695 
//  696 /*********************************************************************
//  697  * @fn      GenericApp_SendTheMessage
//  698  *
//  699  * @brief   Control relay switch .
//  700  *
//  701  * @param   unsigned char *
//  702  *
//  703  * @return  0 or 1
//  704  *********************************************************************/

        RSEG BANKED_CODE:CODE:NOROOT(0)
//  705 int controlRelay(unsigned char* v_MessageData)//!< 判断协调器的命令
controlRelay:
        CFI Block cfiBlock23 Using cfiCommon0
        CFI Function controlRelay
        CODE
//  706 {
        FUNCALL controlRelay, openLed
        LOCFRAME ISTACK, 2, STACK
        LOCFRAME PSTACK, 0, STACK
        LOCFRAME XSTACK, 0, STACK
        LOCFRAME IOVERLAY, 0, STATIC
        LOCFRAME DOVERLAY, 0, STATIC
        ARGFRAME ISTACK, 2, STACK
        ARGFRAME PSTACK, 0, STACK
        ARGFRAME XSTACK, 0, STACK
        ARGFRAME IOVERLAY, 0, STATIC
        ARGFRAME DOVERLAY, 0, STATIC
        PUSH    DPL
        CFI DPL0 Frame(CFA_SP, 4)
        CFI CFA_SP SP+-4
        PUSH    DPH
        CFI DPH0 Frame(CFA_SP, 5)
        CFI CFA_SP SP+-5
        ; Saved register size: 2
        ; Auto size: 0
//  707   if(v_MessageData == NULL)  //!<  传进来的数据是否为空
        MOV     A,R2
        ORL     A,R3
        JNZ     ??controlRelay_0
//  708   {
//  709     return 0;
        MOV     R2,#0x0
        SJMP    ??controlRelay_1
//  710   }
//  711   if(ENDNUM == 3)
//  712   {
//  713     if(v_MessageData[0] == '1')
??controlRelay_0:
        MOV     DPL,R2
        MOV     DPH,R3
        MOVX    A,@DPTR
        XRL     A,#0x31
        JNZ     ??controlRelay_2
//  714     {
//  715       return (openLed( v_MessageData));
        ; Setup parameters for call to function openLed
        LCALL   ??openLed?relay
        SJMP    ??controlRelay_3
//  716     }
//  717   }
//  718   return 2;
??controlRelay_2:
        MOV     R2,#0x2
??controlRelay_1:
        MOV     R3,#0x0
??controlRelay_3:
        LJMP    ?Subroutine0 & 0xFFFF
        CFI EndBlock cfiBlock23
//  719 }
//  720 //!< 控制led灯的开关

        RSEG BANKED_CODE:CODE:NOROOT(0)
//  721 unsigned int openLed(unsigned char* v_MessageData)
openLed:
        CFI Block cfiBlock24 Using cfiCommon0
        CFI Function openLed
        CODE
//  722 {
        PUSH    DPL
        CFI DPL0 Frame(CFA_SP, 4)
        CFI CFA_SP SP+-4
        PUSH    DPH
        CFI DPH0 Frame(CFA_SP, 5)
        CFI CFA_SP SP+-5
        ; Saved register size: 2
        ; Auto size: 0
//  723     
//  724     if((v_MessageData[1]== 'O' && v_MessageData[2]== 'N')||(v_MessageData[1]== 'o' && v_MessageData[2]== 'n')) //!< on打开
        MOV     DPL,R2
        MOV     DPH,R3
        INC     DPTR
        MOVX    A,@DPTR
        XRL     A,#0x4f
        MOV     DPL,R2
        MOV     DPH,R3
        INC     DPTR
        JNZ     ??openLed_0
        INC     DPTR
        MOVX    A,@DPTR
        XRL     A,#0x4e
        JZ      ??openLed_1
//  725     {
//  726       
//  727       return 1;
//  728     }
//  729     else if((v_MessageData[1]== 'O' && v_MessageData[2]== 'F')||(v_MessageData[1]== 'o' && v_MessageData[2]== 'f'))//!< of关闭
//  730     {
//  731        return 0;
??openLed_2:
        MOV     R2,#0x0
??openLed_3:
        MOV     R3,#0x0
//  732     }
        LJMP    ?Subroutine0 & 0xFFFF
??openLed_0:
        MOVX    A,@DPTR
        XRL     A,#0x6f
        JNZ     ??openLed_2
        MOV     DPL,R2
        MOV     DPH,R3
        INC     DPTR
        INC     DPTR
        MOVX    A,@DPTR
        XRL     A,#0x6e
        JNZ     ??openLed_2
??openLed_1:
        MOV     R2,#0x1
        SJMP    ??openLed_3
        CFI EndBlock cfiBlock24
//  733     return 0;
//  734 }
//  735 
//  736 /*********************************************************************
//  737  * @fn      GenericApp_SendTheMessage
//  738  *
//  739  * @brief   Send "the" message.
//  740  *
//  741  * @param   none
//  742  *
//  743  * @return  none
//  744  */
//  745 

        RSEG BANKED_CODE:CODE:NOROOT(0)
//  746 static void GenericApp_SendTheMessage( void )
GenericApp_SendTheMessage:
        CFI Block cfiBlock25 Using cfiCommon0
        CFI Function GenericApp_SendTheMessage
        CODE
//  747 {
        FUNCALL GenericApp_SendTheMessage, memset
        LOCFRAME ISTACK, 0, STACK
        LOCFRAME PSTACK, 0, STACK
        LOCFRAME XSTACK, 84, STACK
        LOCFRAME IOVERLAY, 0, STATIC
        LOCFRAME DOVERLAY, 0, STATIC
        ARGFRAME ISTACK, 0, STACK
        ARGFRAME PSTACK, 0, STACK
        ARGFRAME XSTACK, 84, STACK
        ARGFRAME IOVERLAY, 0, STATIC
        ARGFRAME DOVERLAY, 0, STATIC
        FUNCALL GenericApp_SendTheMessage, memset
        LOCFRAME ISTACK, 0, STACK
        LOCFRAME PSTACK, 0, STACK
        LOCFRAME XSTACK, 84, STACK
        LOCFRAME IOVERLAY, 0, STATIC
        LOCFRAME DOVERLAY, 0, STATIC
        ARGFRAME ISTACK, 0, STACK
        ARGFRAME PSTACK, 0, STACK
        ARGFRAME XSTACK, 84, STACK
        ARGFRAME IOVERLAY, 0, STATIC
        ARGFRAME DOVERLAY, 0, STATIC
        FUNCALL GenericApp_SendTheMessage, memset
        LOCFRAME ISTACK, 0, STACK
        LOCFRAME PSTACK, 0, STACK
        LOCFRAME XSTACK, 84, STACK
        LOCFRAME IOVERLAY, 0, STATIC
        LOCFRAME DOVERLAY, 0, STATIC
        ARGFRAME ISTACK, 0, STACK
        ARGFRAME PSTACK, 0, STACK
        ARGFRAME XSTACK, 84, STACK
        ARGFRAME IOVERLAY, 0, STATIC
        ARGFRAME DOVERLAY, 0, STATIC
        FUNCALL GenericApp_SendTheMessage, memset
        LOCFRAME ISTACK, 0, STACK
        LOCFRAME PSTACK, 0, STACK
        LOCFRAME XSTACK, 84, STACK
        LOCFRAME IOVERLAY, 0, STATIC
        LOCFRAME DOVERLAY, 0, STATIC
        ARGFRAME ISTACK, 0, STACK
        ARGFRAME PSTACK, 0, STACK
        ARGFRAME XSTACK, 84, STACK
        ARGFRAME IOVERLAY, 0, STATIC
        ARGFRAME DOVERLAY, 0, STATIC
        FUNCALL GenericApp_SendTheMessage, memset
        LOCFRAME ISTACK, 0, STACK
        LOCFRAME PSTACK, 0, STACK
        LOCFRAME XSTACK, 84, STACK
        LOCFRAME IOVERLAY, 0, STATIC
        LOCFRAME DOVERLAY, 0, STATIC
        ARGFRAME ISTACK, 0, STACK
        ARGFRAME PSTACK, 0, STACK
        ARGFRAME XSTACK, 84, STACK
        ARGFRAME IOVERLAY, 0, STATIC
        ARGFRAME DOVERLAY, 0, STATIC
        FUNCALL GenericApp_SendTheMessage, memset
        LOCFRAME ISTACK, 0, STACK
        LOCFRAME PSTACK, 0, STACK
        LOCFRAME XSTACK, 84, STACK
        LOCFRAME IOVERLAY, 0, STATIC
        LOCFRAME DOVERLAY, 0, STATIC
        ARGFRAME ISTACK, 0, STACK
        ARGFRAME PSTACK, 0, STACK
        ARGFRAME XSTACK, 84, STACK
        ARGFRAME IOVERLAY, 0, STATIC
        ARGFRAME DOVERLAY, 0, STATIC
        FUNCALL GenericApp_SendTheMessage, DHT11_TEST
        LOCFRAME ISTACK, 0, STACK
        LOCFRAME PSTACK, 0, STACK
        LOCFRAME XSTACK, 82, STACK
        LOCFRAME IOVERLAY, 0, STATIC
        LOCFRAME DOVERLAY, 0, STATIC
        ARGFRAME ISTACK, 0, STACK
        ARGFRAME PSTACK, 0, STACK
        ARGFRAME XSTACK, 82, STACK
        ARGFRAME IOVERLAY, 0, STATIC
        ARGFRAME DOVERLAY, 0, STATIC
        FUNCALL GenericApp_SendTheMessage, memset
        LOCFRAME ISTACK, 0, STACK
        LOCFRAME PSTACK, 0, STACK
        LOCFRAME XSTACK, 84, STACK
        LOCFRAME IOVERLAY, 0, STATIC
        LOCFRAME DOVERLAY, 0, STATIC
        ARGFRAME ISTACK, 0, STACK
        ARGFRAME PSTACK, 0, STACK
        ARGFRAME XSTACK, 84, STACK
        ARGFRAME IOVERLAY, 0, STATIC
        ARGFRAME DOVERLAY, 0, STATIC
        FUNCALL GenericApp_SendTheMessage, HCSR501
        LOCFRAME ISTACK, 0, STACK
        LOCFRAME PSTACK, 0, STACK
        LOCFRAME XSTACK, 82, STACK
        LOCFRAME IOVERLAY, 0, STATIC
        LOCFRAME DOVERLAY, 0, STATIC
        ARGFRAME ISTACK, 0, STACK
        ARGFRAME PSTACK, 0, STACK
        ARGFRAME XSTACK, 82, STACK
        ARGFRAME IOVERLAY, 0, STATIC
        ARGFRAME DOVERLAY, 0, STATIC
        FUNCALL GenericApp_SendTheMessage, LCD_P16x16Ch
        LOCFRAME ISTACK, 0, STACK
        LOCFRAME PSTACK, 0, STACK
        LOCFRAME XSTACK, 82, STACK
        LOCFRAME IOVERLAY, 0, STATIC
        LOCFRAME DOVERLAY, 0, STATIC
        ARGFRAME ISTACK, 0, STACK
        ARGFRAME PSTACK, 0, STACK
        ARGFRAME XSTACK, 82, STACK
        ARGFRAME IOVERLAY, 0, STATIC
        ARGFRAME DOVERLAY, 0, STATIC
        FUNCALL GenericApp_SendTheMessage, LCD_P16x16Ch
        LOCFRAME ISTACK, 0, STACK
        LOCFRAME PSTACK, 0, STACK
        LOCFRAME XSTACK, 82, STACK
        LOCFRAME IOVERLAY, 0, STATIC
        LOCFRAME DOVERLAY, 0, STATIC
        ARGFRAME ISTACK, 0, STACK
        ARGFRAME PSTACK, 0, STACK
        ARGFRAME XSTACK, 82, STACK
        ARGFRAME IOVERLAY, 0, STATIC
        ARGFRAME DOVERLAY, 0, STATIC
        FUNCALL GenericApp_SendTheMessage, LCD_P16x16Ch
        LOCFRAME ISTACK, 0, STACK
        LOCFRAME PSTACK, 0, STACK
        LOCFRAME XSTACK, 82, STACK
        LOCFRAME IOVERLAY, 0, STATIC
        LOCFRAME DOVERLAY, 0, STATIC
        ARGFRAME ISTACK, 0, STACK
        ARGFRAME PSTACK, 0, STACK
        ARGFRAME XSTACK, 82, STACK
        ARGFRAME IOVERLAY, 0, STATIC
        ARGFRAME DOVERLAY, 0, STATIC
        FUNCALL GenericApp_SendTheMessage, LCD_P16x16Ch
        LOCFRAME ISTACK, 0, STACK
        LOCFRAME PSTACK, 0, STACK
        LOCFRAME XSTACK, 82, STACK
        LOCFRAME IOVERLAY, 0, STATIC
        LOCFRAME DOVERLAY, 0, STATIC
        ARGFRAME ISTACK, 0, STACK
        ARGFRAME PSTACK, 0, STACK
        ARGFRAME XSTACK, 82, STACK
        ARGFRAME IOVERLAY, 0, STATIC
        ARGFRAME DOVERLAY, 0, STATIC
        FUNCALL GenericApp_SendTheMessage, LCD_P16x16Ch
        LOCFRAME ISTACK, 0, STACK
        LOCFRAME PSTACK, 0, STACK
        LOCFRAME XSTACK, 82, STACK
        LOCFRAME IOVERLAY, 0, STATIC
        LOCFRAME DOVERLAY, 0, STATIC
        ARGFRAME ISTACK, 0, STACK
        ARGFRAME PSTACK, 0, STACK
        ARGFRAME XSTACK, 82, STACK
        ARGFRAME IOVERLAY, 0, STATIC
        ARGFRAME DOVERLAY, 0, STATIC
        FUNCALL GenericApp_SendTheMessage, LCD_P16x16Ch
        LOCFRAME ISTACK, 0, STACK
        LOCFRAME PSTACK, 0, STACK
        LOCFRAME XSTACK, 82, STACK
        LOCFRAME IOVERLAY, 0, STATIC
        LOCFRAME DOVERLAY, 0, STATIC
        ARGFRAME ISTACK, 0, STACK
        ARGFRAME PSTACK, 0, STACK
        ARGFRAME XSTACK, 82, STACK
        ARGFRAME IOVERLAY, 0, STATIC
        ARGFRAME DOVERLAY, 0, STATIC
        FUNCALL GenericApp_SendTheMessage, LCD_P16x16Ch
        LOCFRAME ISTACK, 0, STACK
        LOCFRAME PSTACK, 0, STACK
        LOCFRAME XSTACK, 82, STACK
        LOCFRAME IOVERLAY, 0, STATIC
        LOCFRAME DOVERLAY, 0, STATIC
        ARGFRAME ISTACK, 0, STACK
        ARGFRAME PSTACK, 0, STACK
        ARGFRAME XSTACK, 82, STACK
        ARGFRAME IOVERLAY, 0, STATIC
        ARGFRAME DOVERLAY, 0, STATIC
        FUNCALL GenericApp_SendTheMessage, LCD_P16x16Ch
        LOCFRAME ISTACK, 0, STACK
        LOCFRAME PSTACK, 0, STACK
        LOCFRAME XSTACK, 82, STACK
        LOCFRAME IOVERLAY, 0, STATIC
        LOCFRAME DOVERLAY, 0, STATIC
        ARGFRAME ISTACK, 0, STACK
        ARGFRAME PSTACK, 0, STACK
        ARGFRAME XSTACK, 82, STACK
        ARGFRAME IOVERLAY, 0, STATIC
        ARGFRAME DOVERLAY, 0, STATIC
        FUNCALL GenericApp_SendTheMessage, LCD_P16x16Ch
        LOCFRAME ISTACK, 0, STACK
        LOCFRAME PSTACK, 0, STACK
        LOCFRAME XSTACK, 82, STACK
        LOCFRAME IOVERLAY, 0, STATIC
        LOCFRAME DOVERLAY, 0, STATIC
        ARGFRAME ISTACK, 0, STACK
        ARGFRAME PSTACK, 0, STACK
        ARGFRAME XSTACK, 82, STACK
        ARGFRAME IOVERLAY, 0, STATIC
        ARGFRAME DOVERLAY, 0, STATIC
        FUNCALL GenericApp_SendTheMessage, LCD_P16x16Ch
        LOCFRAME ISTACK, 0, STACK
        LOCFRAME PSTACK, 0, STACK
        LOCFRAME XSTACK, 82, STACK
        LOCFRAME IOVERLAY, 0, STATIC
        LOCFRAME DOVERLAY, 0, STATIC
        ARGFRAME ISTACK, 0, STACK
        ARGFRAME PSTACK, 0, STACK
        ARGFRAME XSTACK, 82, STACK
        ARGFRAME IOVERLAY, 0, STATIC
        ARGFRAME DOVERLAY, 0, STATIC
        FUNCALL GenericApp_SendTheMessage, LCD_P8x16Str
        LOCFRAME ISTACK, 0, STACK
        LOCFRAME PSTACK, 0, STACK
        LOCFRAME XSTACK, 82, STACK
        LOCFRAME IOVERLAY, 0, STATIC
        LOCFRAME DOVERLAY, 0, STATIC
        ARGFRAME ISTACK, 0, STACK
        ARGFRAME PSTACK, 0, STACK
        ARGFRAME XSTACK, 82, STACK
        ARGFRAME IOVERLAY, 0, STATIC
        ARGFRAME DOVERLAY, 0, STATIC
        FUNCALL GenericApp_SendTheMessage, LCD_P8x16Str
        LOCFRAME ISTACK, 0, STACK
        LOCFRAME PSTACK, 0, STACK
        LOCFRAME XSTACK, 82, STACK
        LOCFRAME IOVERLAY, 0, STATIC
        LOCFRAME DOVERLAY, 0, STATIC
        ARGFRAME ISTACK, 0, STACK
        ARGFRAME PSTACK, 0, STACK
        ARGFRAME XSTACK, 82, STACK
        ARGFRAME IOVERLAY, 0, STATIC
        ARGFRAME DOVERLAY, 0, STATIC
        FUNCALL GenericApp_SendTheMessage, HalUARTWrite
        LOCFRAME ISTACK, 0, STACK
        LOCFRAME PSTACK, 0, STACK
        LOCFRAME XSTACK, 82, STACK
        LOCFRAME IOVERLAY, 0, STATIC
        LOCFRAME DOVERLAY, 0, STATIC
        ARGFRAME ISTACK, 0, STACK
        ARGFRAME PSTACK, 0, STACK
        ARGFRAME XSTACK, 82, STACK
        ARGFRAME IOVERLAY, 0, STATIC
        ARGFRAME DOVERLAY, 0, STATIC
        FUNCALL GenericApp_SendTheMessage, osal_strlen
        LOCFRAME ISTACK, 0, STACK
        LOCFRAME PSTACK, 0, STACK
        LOCFRAME XSTACK, 87, STACK
        LOCFRAME IOVERLAY, 0, STATIC
        LOCFRAME DOVERLAY, 0, STATIC
        ARGFRAME ISTACK, 0, STACK
        ARGFRAME PSTACK, 0, STACK
        ARGFRAME XSTACK, 87, STACK
        ARGFRAME IOVERLAY, 0, STATIC
        ARGFRAME DOVERLAY, 0, STATIC
        FUNCALL GenericApp_SendTheMessage, AF_DataRequest
        LOCFRAME ISTACK, 0, STACK
        LOCFRAME PSTACK, 0, STACK
        LOCFRAME XSTACK, 91, STACK
        LOCFRAME IOVERLAY, 0, STATIC
        LOCFRAME DOVERLAY, 0, STATIC
        ARGFRAME ISTACK, 0, STACK
        ARGFRAME PSTACK, 0, STACK
        ARGFRAME XSTACK, 91, STACK
        ARGFRAME IOVERLAY, 0, STATIC
        ARGFRAME DOVERLAY, 0, STATIC
        MOV     A,#-0xa
        LCALL   ?BANKED_ENTER_XDATA
        CFI DPH0 load(1, XDATA, add(CFA_XSP16, literal(-1)))
        CFI DPL0 load(1, XDATA, add(CFA_XSP16, literal(-2)))
        CFI ?BRET_EXT load(1, XDATA, add(CFA_XSP16, literal(-3)))
        CFI ?RET_HIGH load(1, XDATA, add(CFA_XSP16, literal(-4)))
        CFI ?RET_LOW load(1, XDATA, add(CFA_XSP16, literal(-5)))
        CFI R7 load(1, XDATA, add(CFA_XSP16, literal(-6)))
        CFI V1 load(1, XDATA, add(CFA_XSP16, literal(-7)))
        CFI V0 load(1, XDATA, add(CFA_XSP16, literal(-8)))
        CFI VB load(1, XDATA, add(CFA_XSP16, literal(-9)))
        CFI R6 load(1, XDATA, add(CFA_XSP16, literal(-10)))
        CFI CFA_SP SP+0
        CFI CFA_XSP16 add(XSP16, 10)
        ; Saved register size: 10
        ; Auto size: 72
        MOV     A,#-0x48
        LCALL   ?ALLOC_XSTACK8
        CFI CFA_XSP16 add(XSP16, 82)
//  748  unsigned char i = 0;               //!<  用于循环
//  749  unsigned char idstr[2] = {0};      //!<  存放设备id号
        MOV     DPL,?XSP + 0
        MOV     DPH,?XSP + 1
        MOV     R4,DPL
        MOV     R5,DPH
        MOV     DPH,#(`?<Constant {0}>_1` >> 8) & 0xff
        MOV     DPL,#`?<Constant {0}>_1` & 0xff
        MOV     A,#0x2
        LCALL   ?MOVE_LONG8_XDATA_XDATA
//  750  unsigned char temp[4] = {0};       //!<  存放温度值
        MOV     A,#0x1a
        LCALL   ?XSTACK_DISP0_8
        MOV     R4,DPL
        MOV     R5,DPH
        MOV     DPH,#(`?<Constant {0}>_2` >> 8) & 0xff
        MOV     DPL,#`?<Constant {0}>_2` & 0xff
        MOV     A,#0x4
        LCALL   ?MOVE_LONG8_XDATA_XDATA
//  751  unsigned char humi[4] = {0};       //!<  存放湿度值
        MOV     A,#0x16
        LCALL   ?XSTACK_DISP0_8
        MOV     R4,DPL
        MOV     R5,DPH
        MOV     DPH,#(`?<Constant {0}>_3` >> 8) & 0xff
        MOV     DPL,#`?<Constant {0}>_3` & 0xff
        MOV     A,#0x4
        LCALL   ?MOVE_LONG8_XDATA_XDATA
//  752  unsigned char szMsg[20] = {0};       //!<  封装数据发给协调器
        MOV     A,#0x2
        LCALL   ?XSTACK_DISP0_8
        MOV     R4,DPL
        MOV     R5,DPH
        MOV     DPH,#(`?<Constant {0}>_4` >> 8) & 0xff
        MOV     DPL,#`?<Constant {0}>_4` & 0xff
        MOV     A,#0x14
        LCALL   ?MOVE_LONG8_XDATA_XDATA
//  753  unsigned char strTemp[22] = {0};   //!<  串口打印出数据
        MOV     A,#0x32
        LCALL   ?XSTACK_DISP0_8
        MOV     R4,DPL
        MOV     R5,DPH
        MOV     DPH,#(`?<Constant {0}>_5` >> 8) & 0xff
        MOV     DPL,#`?<Constant {0}>_5` & 0xff
        MOV     A,#0x16
        LCALL   ?MOVE_LONG8_XDATA_XDATA
//  754  unsigned char volTemp[20] = {0};   //!<  显示采集的ADC
//  755  unsigned char szSend[20] = {0};
        MOV     A,#0x1e
        LCALL   ?XSTACK_DISP0_8
        MOV     R4,DPL
        MOV     R5,DPH
        MOV     DPH,#(`?<Constant {0}>_6` >> 8) & 0xff
        MOV     DPL,#`?<Constant {0}>_6` & 0xff
        MOV     A,#0x14
        LCALL   ?MOVE_LONG8_XDATA_XDATA
//  756  
//  757  memset(idstr,0,2);
        ; Setup parameters for call to function memset
        MOV     ?V0 + 0,#0x2
        MOV     ?V0 + 1,A
        MOV     R0,#?V0 + 0
        LCALL   ?PUSH_XSTACK_I_TWO
        CFI CFA_XSP16 add(XSP16, 84)
        MOV     R4,#0x0
        MOV     R5,#0x0
        MOV     A,#0x2
        LCALL   ?XSTACK_DISP0_8
        LCALL   ?Subroutine6 & 0xFFFF
??CrossCallReturnLabel_5:
        LCALL   ?DEALLOC_XSTACK8
        CFI CFA_XSP16 add(XSP16, 82)
//  758  memset(temp,0,4);
        ; Setup parameters for call to function memset
        MOV     ?V0 + 0,#0x4
        MOV     R0,#?V0 + 0
        LCALL   ?PUSH_XSTACK_I_TWO
        CFI CFA_XSP16 add(XSP16, 84)
        MOV     R4,#0x0
        MOV     R5,#0x0
        MOV     A,#0x1c
        LCALL   ?XSTACK_DISP0_8
        LCALL   ?Subroutine6 & 0xFFFF
??CrossCallReturnLabel_6:
        LCALL   ?DEALLOC_XSTACK8
        CFI CFA_XSP16 add(XSP16, 82)
//  759  memset(humi,0,4);
        ; Setup parameters for call to function memset
        MOV     R0,#?V0 + 0
        LCALL   ?PUSH_XSTACK_I_TWO
        CFI CFA_XSP16 add(XSP16, 84)
        MOV     R4,#0x0
        MOV     R5,#0x0
        MOV     A,#0x18
        LCALL   ?XSTACK_DISP0_8
        LCALL   ?Subroutine6 & 0xFFFF
??CrossCallReturnLabel_7:
        LCALL   ?DEALLOC_XSTACK8
        CFI CFA_XSP16 add(XSP16, 82)
//  760  memset(strTemp,0,22);
        ; Setup parameters for call to function memset
        MOV     ?V0 + 0,#0x16
        MOV     R0,#?V0 + 0
        LCALL   ?PUSH_XSTACK_I_TWO
        CFI CFA_XSP16 add(XSP16, 84)
        MOV     R4,#0x0
        MOV     R5,#0x0
        MOV     A,#0x34
        LCALL   ?XSTACK_DISP0_8
        LCALL   ?Subroutine6 & 0xFFFF
??CrossCallReturnLabel_8:
        LCALL   ?DEALLOC_XSTACK8
        CFI CFA_XSP16 add(XSP16, 82)
//  761  memset(szMsg,0,20);
        ; Setup parameters for call to function memset
        MOV     ?V0 + 0,#0x14
        MOV     R0,#?V0 + 0
        LCALL   ?PUSH_XSTACK_I_TWO
        CFI CFA_XSP16 add(XSP16, 84)
        MOV     R4,#0x0
        MOV     R5,#0x0
        MOV     A,#0x4
        LCALL   ?XSTACK_DISP0_8
        LCALL   ?Subroutine6 & 0xFFFF
??CrossCallReturnLabel_9:
        LCALL   ?DEALLOC_XSTACK8
        CFI CFA_XSP16 add(XSP16, 82)
//  762  memset(szSend,0,20);
        ; Setup parameters for call to function memset
        MOV     R0,#?V0 + 0
        LCALL   ?PUSH_XSTACK_I_TWO
        CFI CFA_XSP16 add(XSP16, 84)
        MOV     R4,#0x0
        MOV     R5,#0x0
        MOV     A,#0x20
        LCALL   ?XSTACK_DISP0_8
        LCALL   ?Subroutine6 & 0xFFFF
??CrossCallReturnLabel_10:
        LCALL   ?DEALLOC_XSTACK8
        CFI CFA_XSP16 add(XSP16, 82)
//  763   
//  764  DHT11_TEST();//!<  温湿度值初始化
        ; Setup parameters for call to function DHT11_TEST
        LCALL   ??DHT11_TEST?relay
//  765  
//  766  if(ENDNUM == 1)
//  767  {
//  768    idstr[0] = ENDNUM + 0x30;
//  769    idstr[1] = 0x00;
//  770    temp[0]=wendu_shi+0x30;
//  771    temp[1]=wendu_ge+0x30; 
//  772    temp[2] = 0x00;
//  773    humi[0]=shidu_shi+0x30;
//  774    humi[1]=shidu_ge+0x30;
//  775    humi[2]= 0x00;//把温湿度数据进行发送
//  776     
//  777    osal_memcpy(strTemp,"id:", 3); 
//  778    osal_memcpy(&strTemp[3],idstr, 1);
//  779    osal_memcpy(&strTemp[4],"temp:", 5); 
//  780    osal_memcpy(&strTemp[9],temp, 2);
//  781    osal_memcpy(&strTemp[11],"humi:", 5);
//  782    osal_memcpy(&strTemp[16],humi, 2);
//  783    osal_memcpy(&strTemp[18],"\n", 1);
//  784    
//  785    HalUARTWrite(0, "CSTX=>", 6);
//  786    HalUARTWrite(0, strTemp, 19);
//  787    HalUARTWrite(0, "\r\n",2);
//  788      //输出到LCD显示
//  789     for(i=0; i<3; i++)
//  790     {   
//  791       if(i==0)
//  792       {
//  793         LCD_P16x16Ch(i*16,4,i*16);
//  794         LCD_P16x16Ch(i*16,6,(i+3)*16);
//  795       }
//  796       else
//  797       {
//  798         LCD_P16x16Ch(i*16,4,i*16);
//  799         LCD_P16x16Ch(i*16,6,i*16);        
//  800       }
//  801     } 
//  802     LCD_P8x16Str(44, 4, temp);
//  803     LCD_P8x16Str(44, 6, humi);
//  804     LCD_P8x16Str(88, 2, "ZB");
//  805     LCD_P8x16Str(106, 2,idstr);
//  806     
//  807     
//  808      szMsg[0] = ENDNUM+ 0x30;
//  809      szMsg[1] = wendu_shi+ 0x30;
//  810      szMsg[2] = wendu_ge+ 0x30;
//  811      szMsg[3] = shidu_shi+ 0x30;  
//  812      szMsg[4] = shidu_ge+ 0x30;
//  813      szMsg[5] = GetADCMQ()/10+ 0x30;
//  814      szMsg[6]= GetADCMQ()%10+ 0x30;            //!< 得到烟雾的指标
//  815      szMsg[7]= 0;
//  816      
//  817       
//  818       HalUARTWrite(0, szMsg, 20);
//  819      memset(volTemp,0,20); 
//  820      
//  821      LCD_P16x16Ch(16*4+3,4,14*16);
//  822      LCD_P16x16Ch(5*16+3,4,15*16);
//  823      
//  824      sprintf((char *)volTemp,":%02d",GetADCMQ());
//  825      LCD_P8x16Str(6*16, 4, volTemp);
//  826     }
//  827     if(ENDNUM == 2)
//  828     {
//  829          //显示采集的ADC
//  830      LCD_P8x16Str(16*6-5, 2, "TWO");
//  831      
//  832      memset(szMsg, 0,20);
//  833      szMsg[0] = ENDNUM+ 0x30;
//  834      szMsg[1] = (100-getFrame())/10+ 0x30;
//  835      szMsg[2] = (100-getFrame())%10+ 0x30;
//  836      szMsg[3] = GetADCMQ()/10+ 0x30;
//  837      szMsg[4] = GetADCMQ()%10+ 0x30;
//  838      szMsg[5] = 0;
//  839       memset(volTemp,0,20); 
//  840       
//  841       LCD_P16x16Ch(0,4,4*16);
//  842       LCD_P16x16Ch(16,4,5*16);
//  843       LCD_P16x16Ch(32,4,2*16);
//  844       //LCD_P8x16Str(44, 4, volTemp);
//  845      sprintf((char *)volTemp,"%02d",(unsigned int)(100-getFrame()));
//  846      LCD_P8x16Str(44,4, volTemp);
//  847      memset(volTemp,0,20);
//  848      
//  849      sprintf((char *)volTemp,"A Q I: %02d",(unsigned int)(GetADCMQ()));
//  850      LCD_P8x16Str(0,6, volTemp);
//  851      HalUARTWrite(0, szMsg, 20);
//  852     }
//  853     if(ENDNUM == 3)
//  854     {
//  855       memset(szMsg, 0,20);
        ; Setup parameters for call to function memset
        MOV     R0,#?V0 + 0
        LCALL   ?PUSH_XSTACK_I_TWO
        CFI CFA_XSP16 add(XSP16, 84)
        MOV     R4,#0x0
        MOV     R5,#0x0
        MOV     A,#0x4
        LCALL   ?XSTACK_DISP0_8
        LCALL   ?Subroutine6 & 0xFFFF
??CrossCallReturnLabel_11:
        LCALL   ?DEALLOC_XSTACK8
        CFI CFA_XSP16 add(XSP16, 82)
//  856      szMsg[0] = ENDNUM+ 0x30;
        MOV     A,#0x2
        LCALL   ?XSTACK_DISP0_8
        MOV     A,#0x33
        MOVX    @DPTR,A
//  857      szMsg[1] = iRelayState + 0x30;
        MOV     DPTR,#iRelayState
        MOVX    A,@DPTR
        ADD     A,#0x30
        PUSH    A
        CFI CFA_SP SP+-1
        MOV     A,#0x3
        LCALL   ?XSTACK_DISP0_8
        POP     A
        CFI CFA_SP SP+0
        MOVX    @DPTR,A
//  858      szMsg[2] = HCSR501() + 0x30;
        ; Setup parameters for call to function HCSR501
        LCALL   ??HCSR501?relay
        MOV     A,R2
        ADD     A,#0x30
        PUSH    A
        CFI CFA_SP SP+-1
        MOV     A,#0x4
        LCALL   ?XSTACK_DISP0_8
        POP     A
        CFI CFA_SP SP+0
        MOVX    @DPTR,A
//  859      szMsg[3] = 0;
        MOV     A,#0x5
        LCALL   ?XSTACK_DISP0_8
        CLR     A
        MOVX    @DPTR,A
//  860      
//  861     LCD_P16x16Ch(0,4,6*16);
        ; Setup parameters for call to function LCD_P16x16Ch
        MOV     R3,#0x60
        MOV     R2,#0x4
        MOV     R1,A
        LCALL   ??LCD_P16x16Ch?relay
//  862     LCD_P16x16Ch(16,4,7*16);
        ; Setup parameters for call to function LCD_P16x16Ch
        MOV     R3,#0x70
        MOV     R2,#0x4
        MOV     R1,#0x10
        LCALL   ??LCD_P16x16Ch?relay
//  863     LCD_P16x16Ch(16*2,4,8*16);
        ; Setup parameters for call to function LCD_P16x16Ch
        MOV     R3,#-0x80
        MOV     R2,#0x4
        MOV     R1,#0x20
        LCALL   ??LCD_P16x16Ch?relay
//  864     LCD_P16x16Ch(16*3,4,9*16);
        ; Setup parameters for call to function LCD_P16x16Ch
        MOV     R3,#-0x70
        MOV     R2,#0x4
        MOV     R1,#0x30
        LCALL   ??LCD_P16x16Ch?relay
//  865     LCD_P16x16Ch(16*4,4,2*16);
        ; Setup parameters for call to function LCD_P16x16Ch
        MOV     R3,#0x20
        MOV     R2,#0x4
        MOV     R1,#0x40
        LCALL   ??LCD_P16x16Ch?relay
//  866     
//  867     LCD_P16x16Ch(0,6,10*16);
        ; Setup parameters for call to function LCD_P16x16Ch
        MOV     R3,#-0x60
        MOV     R2,#0x6
        MOV     R1,#0x0
        LCALL   ??LCD_P16x16Ch?relay
//  868     LCD_P16x16Ch(16,6,11*16);
        ; Setup parameters for call to function LCD_P16x16Ch
        MOV     R3,#-0x50
        MOV     R2,#0x6
        MOV     R1,#0x10
        LCALL   ??LCD_P16x16Ch?relay
//  869     LCD_P16x16Ch(16*2,6,12*16);
        ; Setup parameters for call to function LCD_P16x16Ch
        MOV     R3,#-0x40
        MOV     R2,#0x6
        MOV     R1,#0x20
        LCALL   ??LCD_P16x16Ch?relay
//  870     LCD_P16x16Ch(16*3,6,13*16);
        ; Setup parameters for call to function LCD_P16x16Ch
        MOV     R3,#-0x30
        MOV     R2,#0x6
        MOV     R1,#0x30
        LCALL   ??LCD_P16x16Ch?relay
//  871     LCD_P16x16Ch(16*4,6,2*16);
        ; Setup parameters for call to function LCD_P16x16Ch
        MOV     R3,#0x20
        MOV     R2,#0x6
        MOV     R1,#0x40
        LCALL   ??LCD_P16x16Ch?relay
//  872    if(iRelayState == 1)
        MOV     DPTR,#iRelayState
        MOVX    A,@DPTR
        XRL     A,#0x1
        JNZ     ??GenericApp_SendTheMessage_0
        INC     DPTR
        MOVX    A,@DPTR
??GenericApp_SendTheMessage_0:
        JNZ     ??GenericApp_SendTheMessage_1
//  873    {
//  874       LCD_P8x16Str(16*5,4, "ON");
        ; Setup parameters for call to function LCD_P8x16Str
        MOV     R4,#`?<Constant "ON">` & 0xff
        MOV     R5,#(`?<Constant "ON">` >> 8) & 0xff
        MOV     R2,#0x4
        MOV     R1,#0x50
        LCALL   ??LCD_P8x16Str?relay
//  875    }
//  876    if(iRelayState == 0)
??GenericApp_SendTheMessage_1:
        MOV     DPTR,#iRelayState
        MOVX    A,@DPTR
        MOV     R0,A
        INC     DPTR
        MOVX    A,@DPTR
        MOV     R1,A
        MOV     A,R0
        ORL     A,R1
        JNZ     ??GenericApp_SendTheMessage_2
//  877    {
//  878       LCD_P8x16Str(16*5,4, "OFF");
        ; Setup parameters for call to function LCD_P8x16Str
        MOV     R4,#`?<Constant "OFF">` & 0xff
        MOV     R5,#(`?<Constant "OFF">` >> 8) & 0xff
        MOV     R2,#0x4
        MOV     R1,#0x50
        LCALL   ??LCD_P8x16Str?relay
//  879    }
//  880     
//  881      HalUARTWrite(0, szMsg, 20);
??GenericApp_SendTheMessage_2:
        ; Setup parameters for call to function HalUARTWrite
        MOV     R4,#0x14
        MOV     R5,#0x0
        MOV     A,#0x2
        LCALL   ?XSTACK_DISP0_8
        MOV     R2,DPL
        MOV     R3,DPH
        MOV     R1,#0x0
        LCALL   ??HalUARTWrite?relay
//  882     }
//  883     if ( AF_DataRequest( &GenericApp_DstAddr, &GenericApp_epDesc,
//  884                          GENERICAPP_CLUSTERID,
//  885                          (byte)osal_strlen((char *)szMsg ) ,
//  886                          (byte *)&szMsg,
//  887                          &GenericApp_TransID,
//  888                          AF_DISCV_ROUTE, AF_DEFAULT_RADIUS ) == afStatus_SUCCESS )
        ; Setup parameters for call to function AF_DataRequest
        MOV     ?V0 + 0,#0x1e
        MOV     R0,#?V0 + 0
        LCALL   ?PUSH_XSTACK_I_ONE
        CFI CFA_XSP16 add(XSP16, 83)
        MOV     ?V0 + 0,#GenericApp_TransID & 0xff
        MOV     ?V0 + 1,#(GenericApp_TransID >> 8) & 0xff
        MOV     R0,#?V0 + 0
        LCALL   ?PUSH_XSTACK_I_TWO
        CFI CFA_XSP16 add(XSP16, 85)
        MOV     A,#0x5
        LCALL   ?XSTACK_DISP0_8
        MOV     ?V0 + 0,DPL
        MOV     ?V0 + 1,DPH
        MOV     R0,#?V0 + 0
        LCALL   ?PUSH_XSTACK_I_TWO
        CFI CFA_XSP16 add(XSP16, 87)
        ; Setup parameters for call to function osal_strlen
        MOV     A,#0x7
        LCALL   ?XSTACK_DISP0_8
        MOV     R2,DPL
        MOV     R3,DPH
        LCALL   ??osal_strlen?relay
        MOV     ?V0 + 0,R2
        MOV     ?V0 + 1,#0x0
        MOV     R0,#?V0 + 0
        LCALL   ?PUSH_XSTACK_I_TWO
        CFI CFA_XSP16 add(XSP16, 89)
        MOV     ?V0 + 0,#0x1
        MOV     R0,#?V0 + 0
        LCALL   ?PUSH_XSTACK_I_TWO
        CFI CFA_XSP16 add(XSP16, 91)
        MOV     R1,#0x20
        MOV     R4,#GenericApp_epDesc & 0xff
        MOV     R5,#(GenericApp_epDesc >> 8) & 0xff
        MOV     R2,#GenericApp_DstAddr & 0xff
        MOV     R3,#(GenericApp_DstAddr >> 8) & 0xff
        LCALL   ??AF_DataRequest?relay
        MOV     A,#0x9
        LCALL   ?DEALLOC_XSTACK8
        CFI CFA_XSP16 add(XSP16, 82)
//  889     {
//  890       // Successfully requested to be sent.
//  891     }
//  892     else
//  893     {
//  894       // Error occurred in request to send.
//  895     }
//  896 }
        MOV     A,#0x48
        LJMP    ?Subroutine1 & 0xFFFF
        CFI EndBlock cfiBlock25

        RSEG BANKED_CODE:CODE:NOROOT(0)
?Subroutine6:
        CFI Block cfiCond26 Using cfiCommon0
        CFI NoFunction
        CFI Conditional ??CrossCallReturnLabel_5
        CFI R6 load(1, XDATA, add(CFA_XSP16, literal(-10)))
        CFI VB load(1, XDATA, add(CFA_XSP16, literal(-9)))
        CFI V0 load(1, XDATA, add(CFA_XSP16, literal(-8)))
        CFI V1 load(1, XDATA, add(CFA_XSP16, literal(-7)))
        CFI R7 load(1, XDATA, add(CFA_XSP16, literal(-6)))
        CFI ?RET_LOW load(1, XDATA, add(CFA_XSP16, literal(-5)))
        CFI ?RET_HIGH load(1, XDATA, add(CFA_XSP16, literal(-4)))
        CFI ?BRET_EXT load(1, XDATA, add(CFA_XSP16, literal(-3)))
        CFI DPL0 load(1, XDATA, add(CFA_XSP16, literal(-2)))
        CFI DPH0 load(1, XDATA, add(CFA_XSP16, literal(-1)))
        CFI CFA_SP SP+0
        CFI CFA_XSP16 add(XSP16, 84)
        CFI Block cfiCond27 Using cfiCommon0
        CFI (cfiCond27) NoFunction
        CFI (cfiCond27) Conditional ??CrossCallReturnLabel_6
        CFI (cfiCond27) R6 load(1, XDATA, add(CFA_XSP16, literal(-10)))
        CFI (cfiCond27) VB load(1, XDATA, add(CFA_XSP16, literal(-9)))
        CFI (cfiCond27) V0 load(1, XDATA, add(CFA_XSP16, literal(-8)))
        CFI (cfiCond27) V1 load(1, XDATA, add(CFA_XSP16, literal(-7)))
        CFI (cfiCond27) R7 load(1, XDATA, add(CFA_XSP16, literal(-6)))
        CFI (cfiCond27) ?RET_LOW load(1, XDATA, add(CFA_XSP16, literal(-5)))
        CFI (cfiCond27) ?RET_HIGH load(1, XDATA, add(CFA_XSP16, literal(-4)))
        CFI (cfiCond27) ?BRET_EXT load(1, XDATA, add(CFA_XSP16, literal(-3)))
        CFI (cfiCond27) DPL0 load(1, XDATA, add(CFA_XSP16, literal(-2)))
        CFI (cfiCond27) DPH0 load(1, XDATA, add(CFA_XSP16, literal(-1)))
        CFI (cfiCond27) CFA_SP SP+0
        CFI (cfiCond27) CFA_XSP16 add(XSP16, 84)
        CFI Block cfiCond28 Using cfiCommon0
        CFI (cfiCond28) NoFunction
        CFI (cfiCond28) Conditional ??CrossCallReturnLabel_7
        CFI (cfiCond28) R6 load(1, XDATA, add(CFA_XSP16, literal(-10)))
        CFI (cfiCond28) VB load(1, XDATA, add(CFA_XSP16, literal(-9)))
        CFI (cfiCond28) V0 load(1, XDATA, add(CFA_XSP16, literal(-8)))
        CFI (cfiCond28) V1 load(1, XDATA, add(CFA_XSP16, literal(-7)))
        CFI (cfiCond28) R7 load(1, XDATA, add(CFA_XSP16, literal(-6)))
        CFI (cfiCond28) ?RET_LOW load(1, XDATA, add(CFA_XSP16, literal(-5)))
        CFI (cfiCond28) ?RET_HIGH load(1, XDATA, add(CFA_XSP16, literal(-4)))
        CFI (cfiCond28) ?BRET_EXT load(1, XDATA, add(CFA_XSP16, literal(-3)))
        CFI (cfiCond28) DPL0 load(1, XDATA, add(CFA_XSP16, literal(-2)))
        CFI (cfiCond28) DPH0 load(1, XDATA, add(CFA_XSP16, literal(-1)))
        CFI (cfiCond28) CFA_SP SP+0
        CFI (cfiCond28) CFA_XSP16 add(XSP16, 84)
        CFI Block cfiCond29 Using cfiCommon0
        CFI (cfiCond29) NoFunction
        CFI (cfiCond29) Conditional ??CrossCallReturnLabel_8
        CFI (cfiCond29) R6 load(1, XDATA, add(CFA_XSP16, literal(-10)))
        CFI (cfiCond29) VB load(1, XDATA, add(CFA_XSP16, literal(-9)))
        CFI (cfiCond29) V0 load(1, XDATA, add(CFA_XSP16, literal(-8)))
        CFI (cfiCond29) V1 load(1, XDATA, add(CFA_XSP16, literal(-7)))
        CFI (cfiCond29) R7 load(1, XDATA, add(CFA_XSP16, literal(-6)))
        CFI (cfiCond29) ?RET_LOW load(1, XDATA, add(CFA_XSP16, literal(-5)))
        CFI (cfiCond29) ?RET_HIGH load(1, XDATA, add(CFA_XSP16, literal(-4)))
        CFI (cfiCond29) ?BRET_EXT load(1, XDATA, add(CFA_XSP16, literal(-3)))
        CFI (cfiCond29) DPL0 load(1, XDATA, add(CFA_XSP16, literal(-2)))
        CFI (cfiCond29) DPH0 load(1, XDATA, add(CFA_XSP16, literal(-1)))
        CFI (cfiCond29) CFA_SP SP+0
        CFI (cfiCond29) CFA_XSP16 add(XSP16, 84)
        CFI Block cfiCond30 Using cfiCommon0
        CFI (cfiCond30) NoFunction
        CFI (cfiCond30) Conditional ??CrossCallReturnLabel_9
        CFI (cfiCond30) R6 load(1, XDATA, add(CFA_XSP16, literal(-10)))
        CFI (cfiCond30) VB load(1, XDATA, add(CFA_XSP16, literal(-9)))
        CFI (cfiCond30) V0 load(1, XDATA, add(CFA_XSP16, literal(-8)))
        CFI (cfiCond30) V1 load(1, XDATA, add(CFA_XSP16, literal(-7)))
        CFI (cfiCond30) R7 load(1, XDATA, add(CFA_XSP16, literal(-6)))
        CFI (cfiCond30) ?RET_LOW load(1, XDATA, add(CFA_XSP16, literal(-5)))
        CFI (cfiCond30) ?RET_HIGH load(1, XDATA, add(CFA_XSP16, literal(-4)))
        CFI (cfiCond30) ?BRET_EXT load(1, XDATA, add(CFA_XSP16, literal(-3)))
        CFI (cfiCond30) DPL0 load(1, XDATA, add(CFA_XSP16, literal(-2)))
        CFI (cfiCond30) DPH0 load(1, XDATA, add(CFA_XSP16, literal(-1)))
        CFI (cfiCond30) CFA_SP SP+0
        CFI (cfiCond30) CFA_XSP16 add(XSP16, 84)
        CFI Block cfiCond31 Using cfiCommon0
        CFI (cfiCond31) NoFunction
        CFI (cfiCond31) Conditional ??CrossCallReturnLabel_10
        CFI (cfiCond31) R6 load(1, XDATA, add(CFA_XSP16, literal(-10)))
        CFI (cfiCond31) VB load(1, XDATA, add(CFA_XSP16, literal(-9)))
        CFI (cfiCond31) V0 load(1, XDATA, add(CFA_XSP16, literal(-8)))
        CFI (cfiCond31) V1 load(1, XDATA, add(CFA_XSP16, literal(-7)))
        CFI (cfiCond31) R7 load(1, XDATA, add(CFA_XSP16, literal(-6)))
        CFI (cfiCond31) ?RET_LOW load(1, XDATA, add(CFA_XSP16, literal(-5)))
        CFI (cfiCond31) ?RET_HIGH load(1, XDATA, add(CFA_XSP16, literal(-4)))
        CFI (cfiCond31) ?BRET_EXT load(1, XDATA, add(CFA_XSP16, literal(-3)))
        CFI (cfiCond31) DPL0 load(1, XDATA, add(CFA_XSP16, literal(-2)))
        CFI (cfiCond31) DPH0 load(1, XDATA, add(CFA_XSP16, literal(-1)))
        CFI (cfiCond31) CFA_SP SP+0
        CFI (cfiCond31) CFA_XSP16 add(XSP16, 84)
        CFI Block cfiCond32 Using cfiCommon0
        CFI (cfiCond32) NoFunction
        CFI (cfiCond32) Conditional ??CrossCallReturnLabel_11
        CFI (cfiCond32) R6 load(1, XDATA, add(CFA_XSP16, literal(-10)))
        CFI (cfiCond32) VB load(1, XDATA, add(CFA_XSP16, literal(-9)))
        CFI (cfiCond32) V0 load(1, XDATA, add(CFA_XSP16, literal(-8)))
        CFI (cfiCond32) V1 load(1, XDATA, add(CFA_XSP16, literal(-7)))
        CFI (cfiCond32) R7 load(1, XDATA, add(CFA_XSP16, literal(-6)))
        CFI (cfiCond32) ?RET_LOW load(1, XDATA, add(CFA_XSP16, literal(-5)))
        CFI (cfiCond32) ?RET_HIGH load(1, XDATA, add(CFA_XSP16, literal(-4)))
        CFI (cfiCond32) ?BRET_EXT load(1, XDATA, add(CFA_XSP16, literal(-3)))
        CFI (cfiCond32) DPL0 load(1, XDATA, add(CFA_XSP16, literal(-2)))
        CFI (cfiCond32) DPH0 load(1, XDATA, add(CFA_XSP16, literal(-1)))
        CFI (cfiCond32) CFA_SP SP+0
        CFI (cfiCond32) CFA_XSP16 add(XSP16, 84)
        CFI Block cfiPicker33 Using cfiCommon1
        CFI (cfiPicker33) NoFunction
        CFI (cfiPicker33) Picker
        MOV     R2,DPL
        MOV     R3,DPH
        LCALL   ??memset?relay
        MOV     A,#0x2
        RET
        CFI EndBlock cfiCond26
        CFI EndBlock cfiCond27
        CFI EndBlock cfiCond28
        CFI EndBlock cfiCond29
        CFI EndBlock cfiCond30
        CFI EndBlock cfiCond31
        CFI EndBlock cfiCond32
        CFI EndBlock cfiPicker33
//  897 
//  898 //!< 红外传感器的获取

        RSEG BANKED_CODE:CODE:NOROOT(0)
//  899 int HCSR501(void)
HCSR501:
        CFI Block cfiBlock34 Using cfiCommon0
        CFI Function HCSR501
        CODE
//  900 {
        FUNCALL HCSR501, Onboard_wait
        LOCFRAME ISTACK, 0, STACK
        LOCFRAME PSTACK, 0, STACK
        LOCFRAME XSTACK, 9, STACK
        LOCFRAME IOVERLAY, 0, STATIC
        LOCFRAME DOVERLAY, 0, STATIC
        ARGFRAME ISTACK, 0, STACK
        ARGFRAME PSTACK, 0, STACK
        ARGFRAME XSTACK, 9, STACK
        ARGFRAME IOVERLAY, 0, STATIC
        ARGFRAME DOVERLAY, 0, STATIC
        FUNCALL HCSR501, LCD_P8x16Str
        LOCFRAME ISTACK, 0, STACK
        LOCFRAME PSTACK, 0, STACK
        LOCFRAME XSTACK, 9, STACK
        LOCFRAME IOVERLAY, 0, STATIC
        LOCFRAME DOVERLAY, 0, STATIC
        ARGFRAME ISTACK, 0, STACK
        ARGFRAME PSTACK, 0, STACK
        ARGFRAME XSTACK, 9, STACK
        ARGFRAME IOVERLAY, 0, STATIC
        ARGFRAME DOVERLAY, 0, STATIC
        FUNCALL HCSR501, LCD_P8x16Str
        LOCFRAME ISTACK, 0, STACK
        LOCFRAME PSTACK, 0, STACK
        LOCFRAME XSTACK, 9, STACK
        LOCFRAME IOVERLAY, 0, STATIC
        LOCFRAME DOVERLAY, 0, STATIC
        ARGFRAME ISTACK, 0, STACK
        ARGFRAME PSTACK, 0, STACK
        ARGFRAME XSTACK, 9, STACK
        ARGFRAME IOVERLAY, 0, STATIC
        ARGFRAME DOVERLAY, 0, STATIC
        MOV     A,#-0x9
        LCALL   ?BANKED_ENTER_XDATA
        CFI DPH0 load(1, XDATA, add(CFA_XSP16, literal(-1)))
        CFI DPL0 load(1, XDATA, add(CFA_XSP16, literal(-2)))
        CFI ?BRET_EXT load(1, XDATA, add(CFA_XSP16, literal(-3)))
        CFI ?RET_HIGH load(1, XDATA, add(CFA_XSP16, literal(-4)))
        CFI ?RET_LOW load(1, XDATA, add(CFA_XSP16, literal(-5)))
        CFI R7 load(1, XDATA, add(CFA_XSP16, literal(-6)))
        CFI V0 load(1, XDATA, add(CFA_XSP16, literal(-7)))
        CFI VB load(1, XDATA, add(CFA_XSP16, literal(-8)))
        CFI R6 load(1, XDATA, add(CFA_XSP16, literal(-9)))
        CFI CFA_SP SP+0
        CFI CFA_XSP16 add(XSP16, 9)
        ; Saved register size: 9
        ; Auto size: 0
//  901   int iState = 0;
        MOV     R6,#0x0
//  902   MicroWait(1000);
        ; Setup parameters for call to function Onboard_wait
        MOV     R2,#-0x18
        MOV     R3,#0x3
        LCALL   ??Onboard_wait?relay
//  903   if(DATA_PIN == 1)
        MOV     C,0x80.6
        JNC     ??HCSR501_0
//  904   {
//  905     if(DATA_PIN == 1)
        MOV     C,0x80.6
        JNC     ??HCSR501_1
//  906     {
//  907       iState = 1;
        INC     R6
//  908       //HalLcdWriteString( "insecurity", HAL_LCD_LINE_3 ); //LCD显示
//  909       LCD_P8x16Str(16*5,6, "YES");
        ; Setup parameters for call to function LCD_P8x16Str
        MOV     R4,#`?<Constant "YES">` & 0xff
        MOV     R5,#(`?<Constant "YES">` >> 8) & 0xff
        SJMP    ??HCSR501_2
//  910     }
//  911   }
//  912   else
//  913   {
//  914     iState = 0;
//  915     LCD_P8x16Str(16*5,6, "NO");
??HCSR501_0:
        ; Setup parameters for call to function LCD_P8x16Str
        MOV     R4,#`?<Constant "NO">` & 0xff
        MOV     R5,#(`?<Constant "NO">` >> 8) & 0xff
??HCSR501_2:
        MOV     R2,#0x6
        MOV     R1,#0x50
        LCALL   ??LCD_P8x16Str?relay
//  916   }
//  917   return iState;
??HCSR501_1:
        MOV     A,R6
        MOV     R2,A
        MOV     R3,#0x0
        LJMP    ?Subroutine2 & 0xFFFF
        CFI EndBlock cfiBlock34
        REQUIRE _A_P0
//  918 }
//  919 
//  920 //!< 获取火焰传感器的状态

        RSEG XDATA_Z:XDATA:NOROOT(0)
        DATA8
//  921 unsigned char percentVOL=0;//百分比的整数值
percentVOL:
        DS 1
        REQUIRE __INIT_XDATA_Z
//  922 

        RSEG BANKED_CODE:CODE:NOROOT(0)
//  923 unsigned char getFrame(void)
getFrame:
        CFI Block cfiBlock35 Using cfiCommon0
        CFI Function getFrame
        CODE
//  924 {
        FUNCALL getFrame, HalAdcRead
        LOCFRAME ISTACK, 0, STACK
        LOCFRAME PSTACK, 0, STACK
        LOCFRAME XSTACK, 16, STACK
        LOCFRAME IOVERLAY, 0, STATIC
        LOCFRAME DOVERLAY, 0, STATIC
        ARGFRAME ISTACK, 0, STACK
        ARGFRAME PSTACK, 0, STACK
        ARGFRAME XSTACK, 16, STACK
        ARGFRAME IOVERLAY, 0, STATIC
        ARGFRAME DOVERLAY, 0, STATIC
        MOV     A,#-0x10
        LCALL   ?BANKED_ENTER_XDATA
        CFI DPH0 load(1, XDATA, add(CFA_XSP16, literal(-1)))
        CFI DPL0 load(1, XDATA, add(CFA_XSP16, literal(-2)))
        CFI ?BRET_EXT load(1, XDATA, add(CFA_XSP16, literal(-3)))
        CFI ?RET_HIGH load(1, XDATA, add(CFA_XSP16, literal(-4)))
        CFI ?RET_LOW load(1, XDATA, add(CFA_XSP16, literal(-5)))
        CFI R7 load(1, XDATA, add(CFA_XSP16, literal(-6)))
        CFI V7 load(1, XDATA, add(CFA_XSP16, literal(-7)))
        CFI V6 load(1, XDATA, add(CFA_XSP16, literal(-8)))
        CFI V5 load(1, XDATA, add(CFA_XSP16, literal(-9)))
        CFI V4 load(1, XDATA, add(CFA_XSP16, literal(-10)))
        CFI V3 load(1, XDATA, add(CFA_XSP16, literal(-11)))
        CFI V2 load(1, XDATA, add(CFA_XSP16, literal(-12)))
        CFI V1 load(1, XDATA, add(CFA_XSP16, literal(-13)))
        CFI V0 load(1, XDATA, add(CFA_XSP16, literal(-14)))
        CFI VB load(1, XDATA, add(CFA_XSP16, literal(-15)))
        CFI R6 load(1, XDATA, add(CFA_XSP16, literal(-16)))
        CFI CFA_SP SP+0
        CFI CFA_XSP16 add(XSP16, 16)
        ; Saved register size: 16
        ; Auto size: 0
//  925   uint16 adc=0;
//  926   float vol=0.0; //adc采样电压  
//  927   //unsigned char volTemp[20];
//  928   //读MQ2浓度 0-8192
//  929   adc= HalAdcRead(HAL_ADC_CHANNEL_4, HAL_ADC_RESOLUTION_14);
        ; Setup parameters for call to function HalAdcRead
        MOV     R2,#0x4
        MOV     R1,#0x4
        LCALL   ?Subroutine7 & 0xFFFF
//  930 
//  931   //最大采样值8192(因为最高位是符号位)
//  932   //2的13次方=8192
//  933   if(adc>=8192)
??CrossCallReturnLabel_12:
        JC      ??getFrame_0
//  934   {
//  935     return 0;
        MOV     R1,#0x0
        SJMP    ??getFrame_1
//  936   }
//  937 
//  938   //转化为百分比 8189/8192=0.9996
//  939   vol=(float)((float)adc)/8192.0;
//  940      
//  941   //取百分比两位数字
//  942   percentVOL=(int)(vol*100);
??getFrame_0:
        CLR     A
        MOV     ?V0 + 2,A
        MOV     ?V0 + 3,A
        MOV     R0,#?V0 + 0
        LCALL   ?UL_TO_FLT
        MOV     DPTR,#__Constant_39000000
        MOV     R0,#?V0 + 4
        LCALL   ?L_MOV_X
        MOV     R0,#?V0 + 0
        MOV     R1,#?V0 + 4
        LCALL   ?FLT_MUL
        MOV     DPTR,#__Constant_42c80000
        MOV     R0,#?V0 + 4
        LCALL   ?L_MOV_X
        MOV     R0,#?V0 + 0
        MOV     R1,#?V0 + 4
        LCALL   ?FLT_MUL
        MOV     R0,#?V0 + 0
        LCALL   ?FLT_TO_L
        MOV     A,?V0 + 0
        MOV     DPTR,#percentVOL
        MOVX    @DPTR,A
//  943   if(percentVOL<10)
        CLR     C
        SUBB    A,#0xa
        JNC     ??getFrame_2
//  944     percentVOL=1;
        MOV     A,#0x1
        SJMP    ??getFrame_3
//  945   if(percentVOL>99)
??getFrame_2:
        MOVX    A,@DPTR
        CLR     C
        SUBB    A,#0x64
        JC      ??getFrame_4
//  946      percentVOL=99;
        MOV     A,#0x63
??getFrame_3:
        MOVX    @DPTR,A
//  947   //sprintf((char *)volTemp,"ADC:%d",percentVOL);
//  948   //LCD_P8x16Str(80, 6, volTemp);
//  949   
//  950   return percentVOL;
??getFrame_4:
        MOVX    A,@DPTR
        MOV     R1,A
        CFI EndBlock cfiBlock35
??getFrame_1:
        REQUIRE ?Subroutine3
        ; // Fall through to label ?Subroutine3
//  951 }

        RSEG BANKED_CODE:CODE:NOROOT(0)
?Subroutine3:
        CFI Block cfiBlock36 Using cfiCommon0
        CFI NoFunction
        CFI CFA_SP SP+0
        CFI CFA_XSP16 add(XSP16, 16)
        CFI VB load(1, XDATA, add(CFA_XSP16, literal(-15)))
        CFI DPL0 load(1, XDATA, add(CFA_XSP16, literal(-2)))
        CFI DPH0 load(1, XDATA, add(CFA_XSP16, literal(-1)))
        CFI R6 load(1, XDATA, add(CFA_XSP16, literal(-16)))
        CFI R7 load(1, XDATA, add(CFA_XSP16, literal(-6)))
        CFI V0 load(1, XDATA, add(CFA_XSP16, literal(-14)))
        CFI V1 load(1, XDATA, add(CFA_XSP16, literal(-13)))
        CFI V2 load(1, XDATA, add(CFA_XSP16, literal(-12)))
        CFI V3 load(1, XDATA, add(CFA_XSP16, literal(-11)))
        CFI V4 load(1, XDATA, add(CFA_XSP16, literal(-10)))
        CFI V5 load(1, XDATA, add(CFA_XSP16, literal(-9)))
        CFI V6 load(1, XDATA, add(CFA_XSP16, literal(-8)))
        CFI V7 load(1, XDATA, add(CFA_XSP16, literal(-7)))
        CFI ?BRET_EXT load(1, XDATA, add(CFA_XSP16, literal(-3)))
        CFI ?RET_HIGH load(1, XDATA, add(CFA_XSP16, literal(-4)))
        CFI ?RET_LOW load(1, XDATA, add(CFA_XSP16, literal(-5)))
        MOV     R7,#0x8
        LJMP    ?BANKED_LEAVE_XDATA
        CFI EndBlock cfiBlock36
//  952 
//  953 /**********************************************************************/
//  954 //!<  通道5获取ADC值   //!<  使用的Px_5引脚

        RSEG XDATA_Z:XDATA:NOROOT(0)
        DATA8
//  955 unsigned char percentADCMQ=0;//!<  百分比的整数值
percentADCMQ:
        DS 1
        REQUIRE __INIT_XDATA_Z

        RSEG BANKED_CODE:CODE:NOROOT(0)
//  956 unsigned char GetADCMQ(void)
GetADCMQ:
        CFI Block cfiBlock37 Using cfiCommon0
        CFI Function GetADCMQ
        CODE
//  957 {
        FUNCALL GetADCMQ, HalAdcRead
        LOCFRAME ISTACK, 0, STACK
        LOCFRAME PSTACK, 0, STACK
        LOCFRAME XSTACK, 16, STACK
        LOCFRAME IOVERLAY, 0, STATIC
        LOCFRAME DOVERLAY, 0, STATIC
        ARGFRAME ISTACK, 0, STACK
        ARGFRAME PSTACK, 0, STACK
        ARGFRAME XSTACK, 16, STACK
        ARGFRAME IOVERLAY, 0, STATIC
        ARGFRAME DOVERLAY, 0, STATIC
        MOV     A,#-0x10
        LCALL   ?BANKED_ENTER_XDATA
        CFI DPH0 load(1, XDATA, add(CFA_XSP16, literal(-1)))
        CFI DPL0 load(1, XDATA, add(CFA_XSP16, literal(-2)))
        CFI ?BRET_EXT load(1, XDATA, add(CFA_XSP16, literal(-3)))
        CFI ?RET_HIGH load(1, XDATA, add(CFA_XSP16, literal(-4)))
        CFI ?RET_LOW load(1, XDATA, add(CFA_XSP16, literal(-5)))
        CFI R7 load(1, XDATA, add(CFA_XSP16, literal(-6)))
        CFI V7 load(1, XDATA, add(CFA_XSP16, literal(-7)))
        CFI V6 load(1, XDATA, add(CFA_XSP16, literal(-8)))
        CFI V5 load(1, XDATA, add(CFA_XSP16, literal(-9)))
        CFI V4 load(1, XDATA, add(CFA_XSP16, literal(-10)))
        CFI V3 load(1, XDATA, add(CFA_XSP16, literal(-11)))
        CFI V2 load(1, XDATA, add(CFA_XSP16, literal(-12)))
        CFI V1 load(1, XDATA, add(CFA_XSP16, literal(-13)))
        CFI V0 load(1, XDATA, add(CFA_XSP16, literal(-14)))
        CFI VB load(1, XDATA, add(CFA_XSP16, literal(-15)))
        CFI R6 load(1, XDATA, add(CFA_XSP16, literal(-16)))
        CFI CFA_SP SP+0
        CFI CFA_XSP16 add(XSP16, 16)
        ; Saved register size: 16
        ; Auto size: 0
//  958   uint16 adc=0;
//  959   float vol=0.0; //!<  adc采样电压  
//  960   //!<  读MQ2浓度 得到0-8192
//  961   adc= HalAdcRead(HAL_ADC_CHANNEL_5, HAL_ADC_RESOLUTION_14);
        ; Setup parameters for call to function HalAdcRead
        MOV     R2,#0x4
        MOV     R1,#0x5
        LCALL   ?Subroutine7 & 0xFFFF
//  962 
//  963   //!<  最大采样值8192(因为最高位是符号位)
//  964   //2的13次方=8192
//  965   if(adc>=8192)
??CrossCallReturnLabel_13:
        JC      ??GetADCMQ_0
//  966   {
//  967     return 0;
        MOV     R1,#0x0
        SJMP    ??GetADCMQ_1
//  968   }
//  969   //转!<  化为百分比 8189/8192=0.9996
//  970   vol=(float)((float)adc)/8192.0;
//  971   //!<  取百分比两位数字
//  972   percentADCMQ=(int)(vol*100);
??GetADCMQ_0:
        CLR     A
        MOV     ?V0 + 2,A
        MOV     ?V0 + 3,A
        MOV     R0,#?V0 + 0
        LCALL   ?UL_TO_FLT
        MOV     DPTR,#__Constant_39000000
        MOV     R0,#?V0 + 4
        LCALL   ?L_MOV_X
        MOV     R0,#?V0 + 0
        MOV     R1,#?V0 + 4
        LCALL   ?FLT_MUL
        MOV     DPTR,#__Constant_42c80000
        MOV     R0,#?V0 + 4
        LCALL   ?L_MOV_X
        MOV     R0,#?V0 + 0
        MOV     R1,#?V0 + 4
        LCALL   ?FLT_MUL
        MOV     R0,#?V0 + 0
        LCALL   ?FLT_TO_L
        MOV     A,?V0 + 0
        MOV     DPTR,#percentADCMQ
        MOVX    @DPTR,A
//  973   if(percentADCMQ<10)
        CLR     C
        SUBB    A,#0xa
        JNC     ??GetADCMQ_2
//  974     percentADCMQ=1;
        MOV     A,#0x1
        SJMP    ??GetADCMQ_3
//  975   if(percentADCMQ>99)
??GetADCMQ_2:
        MOVX    A,@DPTR
        CLR     C
        SUBB    A,#0x64
        JC      ??GetADCMQ_4
//  976      percentADCMQ=99;
        MOV     A,#0x63
??GetADCMQ_3:
        MOVX    @DPTR,A
//  977   return percentADCMQ;
??GetADCMQ_4:
        MOVX    A,@DPTR
        MOV     R1,A
??GetADCMQ_1:
        SJMP    ?Subroutine3
        CFI EndBlock cfiBlock37
//  978 }

        RSEG BANKED_CODE:CODE:NOROOT(0)
?Subroutine7:
        CFI Block cfiCond38 Using cfiCommon0
        CFI NoFunction
        CFI Conditional ??CrossCallReturnLabel_12
        CFI R6 load(1, XDATA, add(CFA_XSP16, literal(-16)))
        CFI VB load(1, XDATA, add(CFA_XSP16, literal(-15)))
        CFI V0 load(1, XDATA, add(CFA_XSP16, literal(-14)))
        CFI V1 load(1, XDATA, add(CFA_XSP16, literal(-13)))
        CFI V2 load(1, XDATA, add(CFA_XSP16, literal(-12)))
        CFI V3 load(1, XDATA, add(CFA_XSP16, literal(-11)))
        CFI V4 load(1, XDATA, add(CFA_XSP16, literal(-10)))
        CFI V5 load(1, XDATA, add(CFA_XSP16, literal(-9)))
        CFI V6 load(1, XDATA, add(CFA_XSP16, literal(-8)))
        CFI V7 load(1, XDATA, add(CFA_XSP16, literal(-7)))
        CFI R7 load(1, XDATA, add(CFA_XSP16, literal(-6)))
        CFI ?RET_LOW load(1, XDATA, add(CFA_XSP16, literal(-5)))
        CFI ?RET_HIGH load(1, XDATA, add(CFA_XSP16, literal(-4)))
        CFI ?BRET_EXT load(1, XDATA, add(CFA_XSP16, literal(-3)))
        CFI DPL0 load(1, XDATA, add(CFA_XSP16, literal(-2)))
        CFI DPH0 load(1, XDATA, add(CFA_XSP16, literal(-1)))
        CFI CFA_SP SP+0
        CFI CFA_XSP16 add(XSP16, 16)
        CFI Block cfiCond39 Using cfiCommon0
        CFI (cfiCond39) NoFunction
        CFI (cfiCond39) Conditional ??CrossCallReturnLabel_13
        CFI (cfiCond39) R6 load(1, XDATA, add(CFA_XSP16, literal(-16)))
        CFI (cfiCond39) VB load(1, XDATA, add(CFA_XSP16, literal(-15)))
        CFI (cfiCond39) V0 load(1, XDATA, add(CFA_XSP16, literal(-14)))
        CFI (cfiCond39) V1 load(1, XDATA, add(CFA_XSP16, literal(-13)))
        CFI (cfiCond39) V2 load(1, XDATA, add(CFA_XSP16, literal(-12)))
        CFI (cfiCond39) V3 load(1, XDATA, add(CFA_XSP16, literal(-11)))
        CFI (cfiCond39) V4 load(1, XDATA, add(CFA_XSP16, literal(-10)))
        CFI (cfiCond39) V5 load(1, XDATA, add(CFA_XSP16, literal(-9)))
        CFI (cfiCond39) V6 load(1, XDATA, add(CFA_XSP16, literal(-8)))
        CFI (cfiCond39) V7 load(1, XDATA, add(CFA_XSP16, literal(-7)))
        CFI (cfiCond39) R7 load(1, XDATA, add(CFA_XSP16, literal(-6)))
        CFI (cfiCond39) ?RET_LOW load(1, XDATA, add(CFA_XSP16, literal(-5)))
        CFI (cfiCond39) ?RET_HIGH load(1, XDATA, add(CFA_XSP16, literal(-4)))
        CFI (cfiCond39) ?BRET_EXT load(1, XDATA, add(CFA_XSP16, literal(-3)))
        CFI (cfiCond39) DPL0 load(1, XDATA, add(CFA_XSP16, literal(-2)))
        CFI (cfiCond39) DPH0 load(1, XDATA, add(CFA_XSP16, literal(-1)))
        CFI (cfiCond39) CFA_SP SP+0
        CFI (cfiCond39) CFA_XSP16 add(XSP16, 16)
        CFI Block cfiPicker40 Using cfiCommon1
        CFI (cfiPicker40) NoFunction
        CFI (cfiPicker40) Picker
        LCALL   ??HalAdcRead?relay
        MOV     ?V0 + 0,R2
        MOV     ?V0 + 1,R3
        CLR     C
        MOV     A,R3
        SUBB    A,#0x20
        RET
        CFI EndBlock cfiCond38
        CFI EndBlock cfiCond39
        CFI EndBlock cfiPicker40
//  979 

        RSEG BANKED_CODE:CODE:NOROOT(0)
//  980 void MotorDoProcessedData(uchar v_ucdata) //!< 点击转动处理过程
MotorDoProcessedData:
        CFI Block cfiBlock41 Using cfiCommon0
        CFI Function MotorDoProcessedData
        CODE
//  981 {
        ; Saved register size: 0
        ; Auto size: 0
//  982   A = 1&(v_ucdata>>4);
        MOV     A,R1
        MOV     C,0xE0 /* A   */.4
        MOV     0x80.4,C
//  983   B = 1&(v_ucdata>>5);
        MOV     C,0xE0 /* A   */.5
        MOV     0x80.5,C
//  984   C = 1&(v_ucdata>>6);
        MOV     C,0xE0 /* A   */.6
        MOV     0x80.6,C
//  985   D = 1&(v_ucdata>>7);
        MOV     C,0xE0 /* A   */.7
        MOV     0x80.7,C
//  986 }
        LJMP    ?BRET
        CFI EndBlock cfiBlock41
        REQUIRE _A_P0
//  987 
//  988 //!< 顺时针转动

        RSEG BANKED_CODE:CODE:NOROOT(0)
//  989 void MotorDoProcessedShun(uchar Speed)
MotorDoProcessedShun:
        CFI Block cfiBlock42 Using cfiCommon0
        CFI Function MotorDoProcessedShun
        CODE
//  990 {
        FUNCALL MotorDoProcessedShun, MotorDoProcessedData
        LOCFRAME ISTACK, 0, STACK
        LOCFRAME PSTACK, 0, STACK
        LOCFRAME XSTACK, 10, STACK
        LOCFRAME IOVERLAY, 0, STATIC
        LOCFRAME DOVERLAY, 0, STATIC
        ARGFRAME ISTACK, 0, STACK
        ARGFRAME PSTACK, 0, STACK
        ARGFRAME XSTACK, 10, STACK
        ARGFRAME IOVERLAY, 0, STATIC
        ARGFRAME DOVERLAY, 0, STATIC
        FUNCALL MotorDoProcessedShun, Delay_ms
        LOCFRAME ISTACK, 0, STACK
        LOCFRAME PSTACK, 0, STACK
        LOCFRAME XSTACK, 10, STACK
        LOCFRAME IOVERLAY, 0, STATIC
        LOCFRAME DOVERLAY, 0, STATIC
        ARGFRAME ISTACK, 0, STACK
        ARGFRAME PSTACK, 0, STACK
        ARGFRAME XSTACK, 10, STACK
        ARGFRAME IOVERLAY, 0, STATIC
        ARGFRAME DOVERLAY, 0, STATIC
        MOV     A,#-0xa
        LCALL   ?BANKED_ENTER_XDATA
        CFI DPH0 load(1, XDATA, add(CFA_XSP16, literal(-1)))
        CFI DPL0 load(1, XDATA, add(CFA_XSP16, literal(-2)))
        CFI ?BRET_EXT load(1, XDATA, add(CFA_XSP16, literal(-3)))
        CFI ?RET_HIGH load(1, XDATA, add(CFA_XSP16, literal(-4)))
        CFI ?RET_LOW load(1, XDATA, add(CFA_XSP16, literal(-5)))
        CFI R7 load(1, XDATA, add(CFA_XSP16, literal(-6)))
        CFI V1 load(1, XDATA, add(CFA_XSP16, literal(-7)))
        CFI V0 load(1, XDATA, add(CFA_XSP16, literal(-8)))
        CFI VB load(1, XDATA, add(CFA_XSP16, literal(-9)))
        CFI R6 load(1, XDATA, add(CFA_XSP16, literal(-10)))
        CFI CFA_SP SP+0
        CFI CFA_XSP16 add(XSP16, 10)
        ; Saved register size: 10
        ; Auto size: 0
        MOV     A,R1
        MOV     R7,A
//  991   uchar i;
//  992   for(i=0;i<4;i++)
        MOV     R6,#0x0
//  993   {
//  994     MotorDoProcessedData(funcForward[i]);
??MotorDoProcessedShun_0:
        ; Setup parameters for call to function MotorDoProcessedData
        MOV     ?V0 + 0,R6
        MOV     A,#funcForward & 0xff
        ADD     A,?V0 + 0
        MOV     DPL,A
        MOV     A,#(funcForward >> 8) & 0xff
        LCALL   ?Subroutine4 & 0xFFFF
//  995     Delay_ms(Speed);//!< 转速调节
//  996   }
??CrossCallReturnLabel_0:
        JC      ??MotorDoProcessedShun_0
//  997 }
        LJMP    ??Subroutine10_0 & 0xFFFF
        CFI EndBlock cfiBlock42
//  998 //!< 逆时针转动

        RSEG BANKED_CODE:CODE:NOROOT(0)
//  999 void MotorDoProcessedNi(uchar Speed)
MotorDoProcessedNi:
        CFI Block cfiBlock43 Using cfiCommon0
        CFI Function MotorDoProcessedNi
        CODE
// 1000 {
        FUNCALL MotorDoProcessedNi, MotorDoProcessedData
        LOCFRAME ISTACK, 0, STACK
        LOCFRAME PSTACK, 0, STACK
        LOCFRAME XSTACK, 10, STACK
        LOCFRAME IOVERLAY, 0, STATIC
        LOCFRAME DOVERLAY, 0, STATIC
        ARGFRAME ISTACK, 0, STACK
        ARGFRAME PSTACK, 0, STACK
        ARGFRAME XSTACK, 10, STACK
        ARGFRAME IOVERLAY, 0, STATIC
        ARGFRAME DOVERLAY, 0, STATIC
        FUNCALL MotorDoProcessedNi, Delay_ms
        LOCFRAME ISTACK, 0, STACK
        LOCFRAME PSTACK, 0, STACK
        LOCFRAME XSTACK, 10, STACK
        LOCFRAME IOVERLAY, 0, STATIC
        LOCFRAME DOVERLAY, 0, STATIC
        ARGFRAME ISTACK, 0, STACK
        ARGFRAME PSTACK, 0, STACK
        ARGFRAME XSTACK, 10, STACK
        ARGFRAME IOVERLAY, 0, STATIC
        ARGFRAME DOVERLAY, 0, STATIC
        MOV     A,#-0xa
        LCALL   ?BANKED_ENTER_XDATA
        CFI DPH0 load(1, XDATA, add(CFA_XSP16, literal(-1)))
        CFI DPL0 load(1, XDATA, add(CFA_XSP16, literal(-2)))
        CFI ?BRET_EXT load(1, XDATA, add(CFA_XSP16, literal(-3)))
        CFI ?RET_HIGH load(1, XDATA, add(CFA_XSP16, literal(-4)))
        CFI ?RET_LOW load(1, XDATA, add(CFA_XSP16, literal(-5)))
        CFI R7 load(1, XDATA, add(CFA_XSP16, literal(-6)))
        CFI V1 load(1, XDATA, add(CFA_XSP16, literal(-7)))
        CFI V0 load(1, XDATA, add(CFA_XSP16, literal(-8)))
        CFI VB load(1, XDATA, add(CFA_XSP16, literal(-9)))
        CFI R6 load(1, XDATA, add(CFA_XSP16, literal(-10)))
        CFI CFA_SP SP+0
        CFI CFA_XSP16 add(XSP16, 10)
        ; Saved register size: 10
        ; Auto size: 0
        MOV     A,R1
        MOV     R7,A
// 1001   uchar i;
// 1002   for(i=0;i<4;i++)
        MOV     R6,#0x0
// 1003   {
// 1004     MotorDoProcessedData(funcReverse[i]);
??MotorDoProcessedNi_0:
        ; Setup parameters for call to function MotorDoProcessedData
        MOV     ?V0 + 0,R6
        MOV     A,#funcReverse & 0xff
        ADD     A,?V0 + 0
        MOV     DPL,A
        MOV     A,#(funcReverse >> 8) & 0xff
        LCALL   ?Subroutine4 & 0xFFFF
// 1005     Delay_ms(Speed);//!< 转速调节
// 1006   }
??CrossCallReturnLabel_1:
        JC      ??MotorDoProcessedNi_0
// 1007 }
        LJMP    ??Subroutine10_0 & 0xFFFF
        CFI EndBlock cfiBlock43

        RSEG BANKED_CODE:CODE:NOROOT(0)
?Subroutine4:
        CFI Block cfiCond44 Using cfiCommon0
        CFI NoFunction
        CFI Conditional ??CrossCallReturnLabel_0
        CFI R6 load(1, XDATA, add(CFA_XSP16, literal(-10)))
        CFI VB load(1, XDATA, add(CFA_XSP16, literal(-9)))
        CFI V0 load(1, XDATA, add(CFA_XSP16, literal(-8)))
        CFI V1 load(1, XDATA, add(CFA_XSP16, literal(-7)))
        CFI R7 load(1, XDATA, add(CFA_XSP16, literal(-6)))
        CFI ?RET_LOW load(1, XDATA, add(CFA_XSP16, literal(-5)))
        CFI ?RET_HIGH load(1, XDATA, add(CFA_XSP16, literal(-4)))
        CFI ?BRET_EXT load(1, XDATA, add(CFA_XSP16, literal(-3)))
        CFI DPL0 load(1, XDATA, add(CFA_XSP16, literal(-2)))
        CFI DPH0 load(1, XDATA, add(CFA_XSP16, literal(-1)))
        CFI CFA_SP SP+0
        CFI CFA_XSP16 add(XSP16, 10)
        CFI Block cfiCond45 Using cfiCommon0
        CFI (cfiCond45) NoFunction
        CFI (cfiCond45) Conditional ??CrossCallReturnLabel_1
        CFI (cfiCond45) R6 load(1, XDATA, add(CFA_XSP16, literal(-10)))
        CFI (cfiCond45) VB load(1, XDATA, add(CFA_XSP16, literal(-9)))
        CFI (cfiCond45) V0 load(1, XDATA, add(CFA_XSP16, literal(-8)))
        CFI (cfiCond45) V1 load(1, XDATA, add(CFA_XSP16, literal(-7)))
        CFI (cfiCond45) R7 load(1, XDATA, add(CFA_XSP16, literal(-6)))
        CFI (cfiCond45) ?RET_LOW load(1, XDATA, add(CFA_XSP16, literal(-5)))
        CFI (cfiCond45) ?RET_HIGH load(1, XDATA, add(CFA_XSP16, literal(-4)))
        CFI (cfiCond45) ?BRET_EXT load(1, XDATA, add(CFA_XSP16, literal(-3)))
        CFI (cfiCond45) DPL0 load(1, XDATA, add(CFA_XSP16, literal(-2)))
        CFI (cfiCond45) DPH0 load(1, XDATA, add(CFA_XSP16, literal(-1)))
        CFI (cfiCond45) CFA_SP SP+0
        CFI (cfiCond45) CFA_XSP16 add(XSP16, 10)
        CFI Block cfiPicker46 Using cfiCommon1
        CFI (cfiPicker46) NoFunction
        CFI (cfiPicker46) Picker
        LCALL   ??Subroutine9_0 & 0xFFFF
??CrossCallReturnLabel_14:
        MOV     R1,A
        LCALL   ??MotorDoProcessedData?relay
        ; Setup parameters for call to function Delay_ms
        ; Setup parameters for call to function Delay_ms
        MOV     ?V0 + 0,R7
        MOV     R2,?V0 + 0
        MOV     R3,#0x0
        LCALL   ??Delay_ms?relay
        INC     R6
        MOV     A,R6
        CLR     C
        SUBB    A,#0x4
        RET
        CFI EndBlock cfiCond44
        CFI EndBlock cfiCond45
        CFI EndBlock cfiPicker46
// 1008 //停止转动

        RSEG BANKED_CODE:CODE:NOROOT(0)
// 1009 void MotorDoProcessedStop(void)
MotorDoProcessedStop:
        CFI Block cfiBlock47 Using cfiCommon0
        CFI Function MotorDoProcessedStop
        CODE
// 1010 {
        FUNCALL MotorDoProcessedStop, MotorDoProcessedData
        LOCFRAME ISTACK, 2, STACK
        LOCFRAME PSTACK, 0, STACK
        LOCFRAME XSTACK, 0, STACK
        LOCFRAME IOVERLAY, 0, STATIC
        LOCFRAME DOVERLAY, 0, STATIC
        ARGFRAME ISTACK, 2, STACK
        ARGFRAME PSTACK, 0, STACK
        ARGFRAME XSTACK, 0, STACK
        ARGFRAME IOVERLAY, 0, STATIC
        ARGFRAME DOVERLAY, 0, STATIC
        PUSH    DPL
        CFI DPL0 Frame(CFA_SP, 4)
        CFI CFA_SP SP+-4
        PUSH    DPH
        CFI DPH0 Frame(CFA_SP, 5)
        CFI CFA_SP SP+-5
        ; Saved register size: 2
        ; Auto size: 0
// 1011   MotorDoProcessedData(0x00);
        ; Setup parameters for call to function MotorDoProcessedData
        MOV     R1,#0x0
        LCALL   ??MotorDoProcessedData?relay
        CFI EndBlock cfiBlock47
// 1012 }
        REQUIRE ?Subroutine0
        ; // Fall through to label ?Subroutine0

        RSEG BANKED_CODE:CODE:NOROOT(0)
?Subroutine0:
        CFI Block cfiBlock48 Using cfiCommon0
        CFI NoFunction
        CFI CFA_SP SP+-5
        CFI DPL0 Frame(CFA_SP, 4)
        CFI DPH0 Frame(CFA_SP, 5)
        POP     DPH
        CFI CFA_SP SP+-4
        CFI DPH0 SameValue
        POP     DPL
        CFI CFA_SP SP+-3
        CFI DPL0 SameValue
        LJMP    ?BRET
        CFI EndBlock cfiBlock48
// 1013 

        RSEG BANKED_CODE:CODE:NOROOT(0)
// 1014 void InitIO(void)//!< IO引脚初始化工作
InitIO:
        CFI Block cfiBlock49 Using cfiCommon0
        CFI Function InitIO
        CODE
// 1015 {
        ; Saved register size: 0
        ; Auto size: 0
// 1016 	//!< P04 05 06 07定义为普通IO
// 1017 	P0SEL &= 0x0F;  
        ANL     0xf3,#0xf
// 1018 	//!< P04 05 06 07定义为输出
// 1019 	P0DIR |= 0xF0;  
        ORL     0xfd,#0xf0
// 1020 }
        LJMP    ?BRET
        CFI EndBlock cfiBlock49
        REQUIRE P0SEL
        REQUIRE P0DIR
// 1021 

        RSEG BANKED_CODE:CODE:NOROOT(0)
// 1022 void Init_Beep(void)
Init_Beep:
        CFI Block cfiBlock50 Using cfiCommon0
        CFI Function Init_Beep
        CODE
// 1023 {
        ; Saved register size: 0
        ; Auto size: 0
// 1024     P0SEL |= 0x80;          //!< 设置P0.7口为外设
        ORL     0xf3,#0x80
// 1025     P0DIR &= 0x80;          //!< 设置P0.7为输出IO口
        ANL     0xfd,#0x80
// 1026     PERCFG |= 0x40;         //!< 设置定时器1 的I / O 位置   1： 备用位置2
        ORL     0xf1,#0x40
// 1027 }
        LJMP    ?BRET
        CFI EndBlock cfiBlock50
        REQUIRE P0SEL
        REQUIRE P0DIR
        REQUIRE PERCFG
// 1028 
// 1029 //!< 将基准值放入T1CC0 寄存器, 将被比较值放入T1CC3寄存器
// 1030 //!< 当T1CC3中的值与T1CC0中的值相等时，则T1CC3 设置or清除

        RSEG BANKED_CODE:CODE:NOROOT(0)
// 1031 void InitTimer(void)
InitTimer:
        CFI Block cfiBlock51 Using cfiCommon0
        CFI Function InitTimer
        CODE
// 1032 {
        PUSH    DPL
        CFI DPL0 Frame(CFA_SP, 4)
        CFI CFA_SP SP+-4
        PUSH    DPH
        CFI DPH0 Frame(CFA_SP, 5)
        CFI CFA_SP SP+-5
        ; Saved register size: 2
        ; Auto size: 0
// 1033     T1CC0L = 0xff;         //!< PWM duty cycle  周期
        MOV     0xda,#-0x1
// 1034     T1CC0H = 0x0;
        MOV     0xdb,#0x0
// 1035 
// 1036     T1CC3L = 0x30;        //!< PWM signal period 占空比
        MOV     DPTR,#0x62ac
        MOV     A,#0x30
        MOVX    @DPTR,A
// 1037     T1CC3H = 0x00;
        INC     DPTR
        CLR     A
        MOVX    @DPTR,A
// 1038 
// 1039     //!< 等于T1CC0中的数值时候，输出高电平 1； 等于T1CC3中的数值时候，输出低电平 0
// 1040     //!< 其实整个占空比就为50%  为了蜂鸣器输出连续的响声修改了占空比
// 1041     T1CCTL3 = 0x34;
        MOV     DPTR,#0x62a3
        MOV     A,#0x34
        MOVX    @DPTR,A
// 1042     T1CTL |= 0x0f;         //!< divide with 128 and to do i up-down mode
        ORL     0xe4,#0xf
// 1043 }
        SJMP    ?Subroutine0
        CFI EndBlock cfiBlock51
        REQUIRE T1CC0L
        REQUIRE T1CC0H
        REQUIRE T1CTL
// 1044 

        RSEG BANKED_CODE:CODE:NOROOT(0)
// 1045 void startPwm(void)
startPwm:
        CFI Block cfiBlock52 Using cfiCommon0
        CFI Function startPwm
        CODE
// 1046 {
        FUNCALL startPwm, Init_Beep
        LOCFRAME ISTACK, 2, STACK
        LOCFRAME PSTACK, 0, STACK
        LOCFRAME XSTACK, 0, STACK
        LOCFRAME IOVERLAY, 0, STATIC
        LOCFRAME DOVERLAY, 0, STATIC
        ARGFRAME ISTACK, 2, STACK
        ARGFRAME PSTACK, 0, STACK
        ARGFRAME XSTACK, 0, STACK
        ARGFRAME IOVERLAY, 0, STATIC
        ARGFRAME DOVERLAY, 0, STATIC
        FUNCALL startPwm, InitTimer
        LOCFRAME ISTACK, 2, STACK
        LOCFRAME PSTACK, 0, STACK
        LOCFRAME XSTACK, 0, STACK
        LOCFRAME IOVERLAY, 0, STATIC
        LOCFRAME DOVERLAY, 0, STATIC
        ARGFRAME ISTACK, 2, STACK
        ARGFRAME PSTACK, 0, STACK
        ARGFRAME XSTACK, 0, STACK
        ARGFRAME IOVERLAY, 0, STATIC
        ARGFRAME DOVERLAY, 0, STATIC
        PUSH    DPL
        CFI DPL0 Frame(CFA_SP, 4)
        CFI CFA_SP SP+-4
        PUSH    DPH
        CFI DPH0 Frame(CFA_SP, 5)
        CFI CFA_SP SP+-5
        ; Saved register size: 2
        ; Auto size: 0
// 1047     Init_Beep();
        ; Setup parameters for call to function Init_Beep
        LCALL   ??Init_Beep?relay
// 1048     InitTimer();
        ; Setup parameters for call to function InitTimer
        LCALL   ??InitTimer?relay
// 1049 }
        SJMP    ?Subroutine0
        CFI EndBlock cfiBlock52

        RSEG XDATA_ID:CODE:NOROOT(0)
`?<Initializer for funcForward>`:
        DATA8
        DB 128
        DB 64
        DB 32
        DB 16

        RSEG XDATA_ID:CODE:NOROOT(0)
`?<Initializer for funcReverse>`:
        DATA8
        DB 16
        DB 32
        DB 64
        DB 128

        RSEG XDATA_ID:CODE:NOROOT(0)
`?<Initializer for iMotorFlag>`:
        DATA16
        DW 1

        RSEG BANK_RELAYS:CODE:REORDER:NOROOT(0)
??UartInitPort0?relay:
        LCALL   ?BDISPATCH
        DATA
        DC24    UartInitPort0

        RSEG BANK_RELAYS:CODE:REORDER:NOROOT(0)
??rxCB?relay:
        LCALL   ?BDISPATCH
        DATA
        DC24    rxCB

        RSEG BANK_RELAYS:CODE:REORDER:NOROOT(0)
??GenericApp_Init?relay:
        LCALL   ?BDISPATCH
        DATA
        DC24    GenericApp_Init

        RSEG BANK_RELAYS:CODE:REORDER:NOROOT(0)
??GenericApp_ProcessEvent?relay:
        LCALL   ?BDISPATCH
        DATA
        DC24    GenericApp_ProcessEvent

        RSEG BANK_RELAYS:CODE:REORDER:NOROOT(0)
??controlBeer?relay:
        LCALL   ?BDISPATCH
        DATA
        DC24    controlBeer

        RSEG BANK_RELAYS:CODE:REORDER:NOROOT(0)
??controlMotor?relay:
        LCALL   ?BDISPATCH
        DATA
        DC24    controlMotor

        RSEG BANK_RELAYS:CODE:REORDER:NOROOT(0)
??controlRelay?relay:
        LCALL   ?BDISPATCH
        DATA
        DC24    controlRelay

        RSEG BANK_RELAYS:CODE:REORDER:NOROOT(0)
??openLed?relay:
        LCALL   ?BDISPATCH
        DATA
        DC24    openLed

        RSEG BANK_RELAYS:CODE:REORDER:NOROOT(0)
??GenericApp_SendTheMessage?relay:
        LCALL   ?BDISPATCH
        DATA
        DC24    GenericApp_SendTheMessage

        RSEG BANK_RELAYS:CODE:REORDER:NOROOT(0)
??HCSR501?relay:
        LCALL   ?BDISPATCH
        DATA
        DC24    HCSR501

        RSEG BANK_RELAYS:CODE:REORDER:NOROOT(0)
??getFrame?relay:
        LCALL   ?BDISPATCH
        DATA
        DC24    getFrame

        RSEG BANK_RELAYS:CODE:REORDER:NOROOT(0)
??GetADCMQ?relay:
        LCALL   ?BDISPATCH
        DATA
        DC24    GetADCMQ

        RSEG BANK_RELAYS:CODE:REORDER:NOROOT(0)
??MotorDoProcessedData?relay:
        LCALL   ?BDISPATCH
        DATA
        DC24    MotorDoProcessedData

        RSEG BANK_RELAYS:CODE:REORDER:NOROOT(0)
??MotorDoProcessedShun?relay:
        LCALL   ?BDISPATCH
        DATA
        DC24    MotorDoProcessedShun

        RSEG BANK_RELAYS:CODE:REORDER:NOROOT(0)
??MotorDoProcessedNi?relay:
        LCALL   ?BDISPATCH
        DATA
        DC24    MotorDoProcessedNi

        RSEG BANK_RELAYS:CODE:REORDER:NOROOT(0)
??MotorDoProcessedStop?relay:
        LCALL   ?BDISPATCH
        DATA
        DC24    MotorDoProcessedStop

        RSEG BANK_RELAYS:CODE:REORDER:NOROOT(0)
??InitIO?relay:
        LCALL   ?BDISPATCH
        DATA
        DC24    InitIO

        RSEG BANK_RELAYS:CODE:REORDER:NOROOT(0)
??Init_Beep?relay:
        LCALL   ?BDISPATCH
        DATA
        DC24    Init_Beep

        RSEG BANK_RELAYS:CODE:REORDER:NOROOT(0)
??InitTimer?relay:
        LCALL   ?BDISPATCH
        DATA
        DC24    InitTimer

        RSEG BANK_RELAYS:CODE:REORDER:NOROOT(0)
??startPwm?relay:
        LCALL   ?BDISPATCH
        DATA
        DC24    startPwm

        RSEG XDATA_ROM_C:CONST:REORDER:NOROOT(0)
        DATA8
`?<Constant {0}>`:
        DB 0
        DB 0, 0, 0, 0, 0, 0, 0, 0
        DB 0, 0, 0, 0, 0, 0, 0, 0
        DB 0, 0, 0, 0, 0, 0, 0, 0
        DB 0, 0, 0, 0, 0, 0, 0, 0
        DB 0, 0, 0, 0, 0, 0, 0, 0
        DB 0, 0, 0, 0, 0, 0, 0, 0
        DB 0, 0, 0, 0, 0, 0, 0, 0
        DB 0, 0, 0, 0, 0, 0, 0, 0
        DB 0, 0, 0, 0, 0, 0, 0, 0
        DB 0, 0, 0, 0, 0, 0, 0, 0
        DB 0, 0, 0, 0, 0, 0, 0, 0
        DB 0, 0, 0, 0, 0, 0, 0, 0
        DB 0, 0, 0, 0, 0, 0, 0, 0
        DB 0, 0, 0, 0, 0, 0, 0, 0
        DB 0, 0, 0, 0, 0, 0, 0, 0
        DB 0, 0, 0, 0, 0, 0, 0

        RSEG XDATA_ROM_C:CONST:REORDER:NOROOT(0)
        DATA8
`?<Constant "GenericApp">`:
        DB "GenericApp"

        RSEG XDATA_ROM_C:CONST:REORDER:NOROOT(0)
        DATA8
`?<Constant "456SHUN\\r\\n">`:
        DB "456SHUN\015\012"

        RSEG XDATA_ROM_C:CONST:REORDER:NOROOT(0)
        DATA8
`?<Constant "789SHUN\\r\\n">`:
        DB "789SHUN\015\012"

        RSEG XDATA_ROM_C:CONST:REORDER:NOROOT(0)
        DATA16
`?<Constant {0}>_1`:
        DATA8
        DB 0
        DB 0

        RSEG XDATA_ROM_C:CONST:REORDER:NOROOT(0)
        DATA32
`?<Constant {0}>_2`:
        DATA8
        DB 0
        DB 0, 0, 0

        RSEG XDATA_ROM_C:CONST:REORDER:NOROOT(0)
        DATA32
`?<Constant {0}>_3`:
        DATA8
        DB 0
        DB 0, 0, 0

        RSEG XDATA_ROM_C:CONST:REORDER:NOROOT(0)
        DATA8
`?<Constant {0}>_4`:
        DB 0
        DB 0, 0, 0, 0, 0, 0, 0, 0
        DB 0, 0, 0, 0, 0, 0, 0, 0
        DB 0, 0, 0

        RSEG XDATA_ROM_C:CONST:REORDER:NOROOT(0)
        DATA8
`?<Constant {0}>_5`:
        DB 0
        DB 0, 0, 0, 0, 0, 0, 0, 0
        DB 0, 0, 0, 0, 0, 0, 0, 0
        DB 0, 0, 0, 0, 0

        RSEG XDATA_ROM_C:CONST:REORDER:NOROOT(0)
        DATA8
`?<Constant {0}>_6`:
        DB 0
        DB 0, 0, 0, 0, 0, 0, 0, 0
        DB 0, 0, 0, 0, 0, 0, 0, 0
        DB 0, 0, 0

        RSEG XDATA_ROM_C:CONST:REORDER:NOROOT(0)
        DATA8
`?<Constant "ON">`:
        DB "ON"

        RSEG XDATA_ROM_C:CONST:REORDER:NOROOT(0)
        DATA32
`?<Constant "OFF">`:
        DB "OFF"

        RSEG XDATA_ROM_C:CONST:REORDER:NOROOT(0)
        DATA32
`?<Constant "YES">`:
        DB "YES"

        RSEG XDATA_ROM_C:CONST:REORDER:NOROOT(0)
        DATA8
`?<Constant "NO">`:
        DB "NO"

        RSEG XDATA_ROM_C:CONST:REORDER:NOROOT(0)
        DATA32
__Constant_39000000:
        DD 39000000H

        RSEG XDATA_ROM_C:CONST:REORDER:NOROOT(0)
        DATA32
__Constant_42c80000:
        DD 42C80000H

        END
// 1050 
// 1051 /**********************************************************************/
// 1052 
// 1053 #if defined( IAR_ARMCM3_LM )
// 1054 /*********************************************************************
// 1055  * @fn      GenericApp_ProcessRtosMessage
// 1056  *
// 1057  * @brief   Receive message from RTOS queue, send response back.
// 1058  *
// 1059  * @param   none
// 1060  *
// 1061  * @return  none
// 1062  */
// 1063 static void GenericApp_ProcessRtosMessage( void )
// 1064 {
// 1065   osalQueue_t inMsg;
// 1066 
// 1067   if ( osal_queue_receive( OsalQueue, &inMsg, 0 ) == pdPASS )
// 1068   {
// 1069     uint8 cmndId = inMsg.cmnd;
// 1070     uint32 counter = osal_build_uint32( inMsg.cbuf, 4 );
// 1071 
// 1072     switch ( cmndId )
// 1073     {
// 1074       case CMD_INCR:
// 1075         counter += 1;  /* Increment the incoming counter */
// 1076                        /* Intentionally fall through next case */
// 1077 
// 1078       case CMD_ECHO:
// 1079       {
// 1080         userQueue_t outMsg;
// 1081 
// 1082         outMsg.resp = RSP_CODE | cmndId;  /* Response ID */
// 1083         osal_buffer_uint32( outMsg.rbuf, counter );    /* Increment counter */
// 1084         osal_queue_send( UserQueue1, &outMsg, 0 );  /* Send back to UserTask */
// 1085         break;
// 1086       }
// 1087       
// 1088       default:
// 1089         break;  /* Ignore unknown command */    
// 1090     }
// 1091   }
// 1092 }
// 1093 #endif
// 1094 
// 1095 /*********************************************************************
// 1096  */
// 
// 2 356 bytes in segment BANKED_CODE
//   120 bytes in segment BANK_RELAYS
//     9 bytes in segment SFR_AN
//    10 bytes in segment XDATA_I
//    10 bytes in segment XDATA_ID
//   273 bytes in segment XDATA_ROM_C
//    26 bytes in segment XDATA_Z
// 
// 2 486 bytes of CODE  memory
//   265 bytes of CONST memory (+ 8 bytes shared)
//     0 bytes of DATA  memory (+ 9 bytes shared)
//    36 bytes of XDATA memory
//
//Errors: none
//Warnings: none
