///////////////////////////////////////////////////////////////////////////////
//                                                                            /
// IAR C/C++ Compiler V8.10.3.10338/W32 for 8051        09/Jan/2022  14:29:42 /
// Copyright 2004-2011 IAR Systems AB.                                        /
//                                                                            /
//    Core               =  plain                                             /
//    Code model         =  banked                                            /
//    Data model         =  large                                             /
//    Calling convention =  xdata reentrant                                   /
//    Constant location  =  data_rom                                          /
//    Dptr setup         =  1,16                                              /
//    Source file        =  D:\test_nb\代码\多终端\Projects\zstack\Samples\Ge /
//                          nericApp\Source\IOT.c                             /
//    Command line       =  -f D:\test_nb\代码\多终端\Projects\zstack\Samples /
//                          \GenericApp\CC2530DB\..\..\..\Tools\CC2530DB\f8wC /
//                          oord.cfg (-DCPU32MHZ -DROOT=__near_func           /
//                          -DMAC_CFG_APP_PENDING_QUEUE=TRUE                  /
//                          -DMAC_CFG_TX_DATA_MAX=5 -DMAC_CFG_TX_MAX=8        /
//                          -DMAC_CFG_RX_MAX=5 -DZDO_COORDINATOR -DRTR_NWK)   /
//                          -f D:\test_nb\代码\多终端\Projects\zstack\Samples /
//                          \GenericApp\CC2530DB\..\..\..\Tools\CC2530DB\f8wC /
//                          onfig.cfg (-DZIGBEEPRO -DSECURE=0                 /
//                          -DZG_SECURE_DYNAMIC=0 -DREFLECTOR                 /
//                          -DDEFAULT_CHANLIST=0x00000800                     /
//                          -DZDAPP_CONFIG_PAN_ID=0xFFFF                      /
//                          -DNWK_START_DELAY=100 -DEXTENDED_JOINING_RANDOM_M /
//                          ASK=0x007F -DBEACON_REQUEST_DELAY=100             /
//                          -DBEACON_REQ_DELAY_MASK=0x00FF                    /
//                          -DLINK_STATUS_JITTER_MASK=0x007F                  /
//                          -DROUTE_EXPIRY_TIME=30 -DAPSC_ACK_WAIT_DURATION_P /
//                          OLLED=3000 -DNWK_INDIRECT_MSG_TIMEOUT=7           /
//                          -DMAX_RREQ_ENTRIES=8 -DAPSC_MAX_FRAME_RETRIES=3   /
//                          -DNWK_MAX_DATA_RETRIES=2                          /
//                          -DMAX_POLL_FAILURE_RETRIES=2 -DMAX_BCAST=9        /
//                          -DAPS_MAX_GROUPS=16 -DMAX_RTG_ENTRIES=40          /
//                          -DNWK_MAX_BINDING_ENTRIES=4                       /
//                          -DMAX_BINDING_CLUSTER_IDS=4                       /
//                          "-DDEFAULT_KEY={0x01, 0x03, 0x05, 0x07, 0x09,     /
//                          0x0B, 0x0D, 0x0F, 0x00, 0x02, 0x04, 0x06, 0x08,   /
//                          0x0A, 0x0C, 0x0D}" -DMAC_MAX_FRAME_SIZE=116       /
//                          -DZDNWKMGR_MIN_TRANSMISSIONS=20 "-DCONST=const    /
//                          __code" -DGENERIC=__generic                       /
//                          -DRFD_RCVC_ALWAYS_ON=FALSE -DPOLL_RATE=1000       /
//                          -DQUEUED_POLL_RATE=100 -DRESPONSE_POLL_RATE=100)  /
//                          -DREJOIN_POLL_RATE=440 D:\test_nb\代码\多终端\Pro /
//                          jects\zstack\Samples\GenericApp\Source\IOT.c -D   /
//                          ZTOOL_P1 -D LCD_SUPPORTED -lC                     /
//                          D:\test_nb\代码\多终端\Projects\zstack\Samples\Ge /
//                          nericApp\CC2530DB\CoordinatorEB\List\ -lA         /
//                          D:\test_nb\代码\多终端\Projects\zstack\Samples\Ge /
//                          nericApp\CC2530DB\CoordinatorEB\List\             /
//                          --diag_suppress Pe001,Pa010 -o                    /
//                          D:\test_nb\代码\多终端\Projects\zstack\Samples\Ge /
//                          nericApp\CC2530DB\CoordinatorEB\Obj\ -e           /
//                          --no_code_motion --debug --core=plain             /
//                          --dptr=16,1 --data_model=large                    /
//                          --code_model=banked --calling_convention=xdata_re /
//                          entrant --place_constants=data_rom                /
//                          --nr_virtual_regs 16 -I                           /
//                          D:\test_nb\代码\多终端\Projects\zstack\Samples\Ge /
//                          nericApp\CC2530DB\ -I D:\test_nb\代码\多终端\Proj /
//                          ects\zstack\Samples\GenericApp\CC2530DB\..\Source /
//                          \ -I D:\test_nb\代码\多终端\Projects\zstack\Sampl /
//                          es\GenericApp\CC2530DB\..\..\..\ZMain\TI2530DB\   /
//                          -I D:\test_nb\代码\多终端\Projects\zstack\Samples /
//                          \GenericApp\CC2530DB\..\..\..\..\..\Components\ha /
//                          l\include\ -I D:\test_nb\代码\多终端\Projects\zst /
//                          ack\Samples\GenericApp\CC2530DB\..\..\..\..\..\Co /
//                          mponents\hal\target\CC2530EB\ -I                  /
//                          D:\test_nb\代码\多终端\Projects\zstack\Samples\Ge /
//                          nericApp\CC2530DB\..\..\..\..\..\Components\mac\i /
//                          nclude\ -I D:\test_nb\代码\多终端\Projects\zstack /
//                          \Samples\GenericApp\CC2530DB\..\..\..\..\..\Compo /
//                          nents\mac\high_level\ -I                          /
//                          D:\test_nb\代码\多终端\Projects\zstack\Samples\Ge /
//                          nericApp\CC2530DB\..\..\..\..\..\Components\mac\l /
//                          ow_level\srf04\ -I D:\test_nb\代码\多终端\Project /
//                          s\zstack\Samples\GenericApp\CC2530DB\..\..\..\..\ /
//                          ..\Components\mac\low_level\srf04\single_chip\    /
//                          -I D:\test_nb\代码\多终端\Projects\zstack\Samples /
//                          \GenericApp\CC2530DB\..\..\..\..\..\Components\mt /
//                          \ -I D:\test_nb\代码\多终端\Projects\zstack\Sampl /
//                          es\GenericApp\CC2530DB\..\..\..\..\..\Components\ /
//                          osal\include\ -I D:\test_nb\代码\多终端\Projects\ /
//                          zstack\Samples\GenericApp\CC2530DB\..\..\..\..\.. /
//                          \Components\services\saddr\ -I                    /
//                          D:\test_nb\代码\多终端\Projects\zstack\Samples\Ge /
//                          nericApp\CC2530DB\..\..\..\..\..\Components\servi /
//                          ces\sdata\ -I D:\test_nb\代码\多终端\Projects\zst /
//                          ack\Samples\GenericApp\CC2530DB\..\..\..\..\..\Co /
//                          mponents\stack\af\ -I D:\test_nb\代码\多终端\Proj /
//                          ects\zstack\Samples\GenericApp\CC2530DB\..\..\..\ /
//                          ..\..\Components\stack\nwk\ -I                    /
//                          D:\test_nb\代码\多终端\Projects\zstack\Samples\Ge /
//                          nericApp\CC2530DB\..\..\..\..\..\Components\stack /
//                          \sapi\ -I D:\test_nb\代码\多终端\Projects\zstack\ /
//                          Samples\GenericApp\CC2530DB\..\..\..\..\..\Compon /
//                          ents\stack\sec\ -I D:\test_nb\代码\多终端\Project /
//                          s\zstack\Samples\GenericApp\CC2530DB\..\..\..\..\ /
//                          ..\Components\stack\sys\ -I                       /
//                          D:\test_nb\代码\多终端\Projects\zstack\Samples\Ge /
//                          nericApp\CC2530DB\..\..\..\..\..\Components\stack /
//                          \zdo\ -I D:\test_nb\代码\多终端\Projects\zstack\S /
//                          amples\GenericApp\CC2530DB\..\..\..\..\..\Compone /
//                          nts\zmac\ -I D:\test_nb\代码\多终端\Projects\zsta /
//                          ck\Samples\GenericApp\CC2530DB\..\..\..\..\..\Com /
//                          ponents\zmac\f8w\ -Ohz --require_prototypes       /
//    List file          =  D:\test_nb\代码\多终端\Projects\zstack\Samples\Ge /
//                          nericApp\CC2530DB\CoordinatorEB\List\IOT.s51      /
//                                                                            /
//                                                                            /
///////////////////////////////////////////////////////////////////////////////

        NAME IOT

        RTMODEL "__SystemLibrary", "CLib"
        RTMODEL "__calling_convention", "xdata_reentrant"
        RTMODEL "__code_model", "banked"
        RTMODEL "__core", "plain"
        RTMODEL "__data_model", "large"
        RTMODEL "__dptr_size", "16"
        RTMODEL "__extended_stack", "disabled"
        RTMODEL "__location_for_constants", "data"
        RTMODEL "__number_of_dptrs", "1"
        RTMODEL "__rt_version", "1"

        RSEG DOVERLAY:DATA:NOROOT(0)
        RSEG IOVERLAY:IDATA:NOROOT(0)
        RSEG ISTACK:IDATA:NOROOT(0)
        RSEG PSTACK:XDATA:NOROOT(0)
        RSEG XSTACK:XDATA:NOROOT(0)

        EXTERN ?ALLOC_XSTACK8
        EXTERN ?BANKED_ENTER_XDATA
        EXTERN ?BANKED_LEAVE_XDATA
        EXTERN ?BDISPATCH
        EXTERN ?BRET
        EXTERN ?DEALLOC_XSTACK8
        EXTERN ?MOVE_LONG8_XDATA_XDATA
        EXTERN ?PUSH_XSTACK_I_THREE
        EXTERN ?PUSH_XSTACK_I_TWO
        EXTERN ?V0
        EXTERN ?XSP
        EXTERN ?XSTACK_DISP0_8
        EXTERN __INIT_XDATA_Z

        PUBLIC ??IOT_RecdataPut?relay
        FUNCTION ??IOT_RecdataPut?relay,0203H
        PUBLIC ??IOT_WiFiInit?relay
        FUNCTION ??IOT_WiFiInit?relay,0203H
        PUBLIC ??IotConntect?relay
        FUNCTION ??IotConntect?relay,0203H
        PUBLIC ??SerialCallBack?relay
        FUNCTION ??SerialCallBack?relay,0203H
        PUBLIC ??UartInitPort0?relay
        FUNCTION ??UartInitPort0?relay,0203H
        PUBLIC ??UartInitPort1?relay
        FUNCTION ??UartInitPort1?relay,0203H
        FUNCTION ??rxCB?relay,0203H
        PUBLIC IOT_RecdataPut
        FUNCTION IOT_RecdataPut,021203H
        ARGFRAME XSTACK, 10, STACK
        ARGFRAME IOVERLAY, 0, STATIC
        ARGFRAME DOVERLAY, 0, STATIC
        LOCFRAME XSTACK, 10, STACK
        PUBLIC IOT_WiFiInit
        FUNCTION IOT_WiFiInit,021203H
        ARGFRAME XSTACK, 0, STACK
        LOCFRAME ISTACK, 2, STACK
        PUBLIC IotConntect
        FUNCTION IotConntect,021203H
        ARGFRAME XSTACK, 0, STACK
        LOCFRAME XSTACK, 214, STACK
        PUBLIC SerialCallBack
        FUNCTION SerialCallBack,021203H
        ARGFRAME XSTACK, 0, STACK
        LOCFRAME XSTACK, 10, STACK
        PUBLIC UartInitPort0
        FUNCTION UartInitPort0,021203H
        ARGFRAME XSTACK, 0, STACK
        LOCFRAME ISTACK, 2, STACK
        LOCFRAME XSTACK, 29, STACK
        PUBLIC UartInitPort1
        FUNCTION UartInitPort1,021203H
        ARGFRAME XSTACK, 0, STACK
        LOCFRAME ISTACK, 2, STACK
        LOCFRAME XSTACK, 29, STACK
        PUBLIC WiFiStatus
        FUNCTION rxCB,021603H
        ARGFRAME XSTACK, 0, STACK
        LOCFRAME ISTACK, 2, STACK
        LOCFRAME XSTACK, 142, STACK
        PUBLIC uartbuf2
        PUBLIC uchBuf
        
        CFI Names cfiNames0
        CFI StackFrame CFA_SP SP IDATA
        CFI StackFrame CFA_PSP16 PSP16 XDATA
        CFI StackFrame CFA_XSP16 XSP16 XDATA
        CFI StaticOverlayFrame CFA_IOVERLAY IOVERLAY
        CFI StaticOverlayFrame CFA_DOVERLAY DOVERLAY
        CFI Resource `PSW.CY`:1, `B.BR0`:1, `B.BR1`:1, `B.BR2`:1, `B.BR3`:1
        CFI Resource `B.BR4`:1, `B.BR5`:1, `B.BR6`:1, `B.BR7`:1, `VB.BR8`:1
        CFI Resource `VB.BR9`:1, `VB.BR10`:1, `VB.BR11`:1, `VB.BR12`:1
        CFI Resource `VB.BR13`:1, `VB.BR14`:1, `VB.BR15`:1, VB:8, B:8, A:8
        CFI Resource PSW:8, DPL0:8, DPH0:8, R0:8, R1:8, R2:8, R3:8, R4:8, R5:8
        CFI Resource R6:8, R7:8, V0:8, V1:8, V2:8, V3:8, V4:8, V5:8, V6:8, V7:8
        CFI Resource V8:8, V9:8, V10:8, V11:8, V12:8, V13:8, V14:8, V15:8, SP:8
        CFI Resource PSPH:8, PSPL:8, PSP16:16, XSPH:8, XSPL:8, XSP16:16
        CFI VirtualResource ?RET:24
        CFI Resource ?BRET_EXT:8
        CFI VirtualResource ?RET_HIGH:8, ?RET_LOW:8
        CFI ResourceParts PSP16 PSPH, PSPL
        CFI ResourceParts XSP16 XSPH, XSPL
        CFI ResourceParts ?RET ?BRET_EXT, ?RET_HIGH, ?RET_LOW
        CFI EndNames cfiNames0
        
        CFI Common cfiCommon0 Using cfiNames0
        CFI CodeAlign 1
        CFI DataAlign -1
        CFI ReturnAddress ?RET CODE
        CFI CFA_DOVERLAY Used
        CFI CFA_IOVERLAY Used
        CFI CFA_SP SP+-3
        CFI CFA_PSP16 PSP16+0
        CFI CFA_XSP16 XSP16+0
        CFI `PSW.CY` SameValue
        CFI `B.BR0` SameValue
        CFI `B.BR1` SameValue
        CFI `B.BR2` SameValue
        CFI `B.BR3` SameValue
        CFI `B.BR4` SameValue
        CFI `B.BR5` SameValue
        CFI `B.BR6` SameValue
        CFI `B.BR7` SameValue
        CFI `VB.BR8` SameValue
        CFI `VB.BR9` SameValue
        CFI `VB.BR10` SameValue
        CFI `VB.BR11` SameValue
        CFI `VB.BR12` SameValue
        CFI `VB.BR13` SameValue
        CFI `VB.BR14` SameValue
        CFI `VB.BR15` SameValue
        CFI VB SameValue
        CFI B Undefined
        CFI A Undefined
        CFI PSW SameValue
        CFI DPL0 SameValue
        CFI DPH0 SameValue
        CFI R0 Undefined
        CFI R1 Undefined
        CFI R2 Undefined
        CFI R3 Undefined
        CFI R4 Undefined
        CFI R5 Undefined
        CFI R6 SameValue
        CFI R7 SameValue
        CFI V0 SameValue
        CFI V1 SameValue
        CFI V2 SameValue
        CFI V3 SameValue
        CFI V4 SameValue
        CFI V5 SameValue
        CFI V6 SameValue
        CFI V7 SameValue
        CFI V8 SameValue
        CFI V9 SameValue
        CFI V10 SameValue
        CFI V11 SameValue
        CFI V12 SameValue
        CFI V13 SameValue
        CFI V14 SameValue
        CFI V15 SameValue
        CFI PSPH Undefined
        CFI PSPL Undefined
        CFI XSPH Undefined
        CFI XSPL Undefined
        CFI ?RET Concat
        CFI ?BRET_EXT Frame(CFA_SP, 3)
        CFI ?RET_HIGH Frame(CFA_SP, 2)
        CFI ?RET_LOW Frame(CFA_SP, 1)
        CFI EndCommon cfiCommon0
        
        
        CFI Common cfiCommon1 Using cfiNames0
        CFI CodeAlign 1
        CFI DataAlign -1
        CFI ReturnAddress ?RET CODE
        CFI CFA_DOVERLAY Used
        CFI CFA_IOVERLAY Used
        CFI CFA_SP SP+-2
        CFI CFA_PSP16 PSP16+0
        CFI CFA_XSP16 XSP16+0
        CFI `PSW.CY` SameValue
        CFI `B.BR0` SameValue
        CFI `B.BR1` SameValue
        CFI `B.BR2` SameValue
        CFI `B.BR3` SameValue
        CFI `B.BR4` SameValue
        CFI `B.BR5` SameValue
        CFI `B.BR6` SameValue
        CFI `B.BR7` SameValue
        CFI `VB.BR8` SameValue
        CFI `VB.BR9` SameValue
        CFI `VB.BR10` SameValue
        CFI `VB.BR11` SameValue
        CFI `VB.BR12` SameValue
        CFI `VB.BR13` SameValue
        CFI `VB.BR14` SameValue
        CFI `VB.BR15` SameValue
        CFI VB SameValue
        CFI B SameValue
        CFI A SameValue
        CFI PSW SameValue
        CFI DPL0 SameValue
        CFI DPH0 SameValue
        CFI R0 SameValue
        CFI R1 SameValue
        CFI R2 SameValue
        CFI R3 SameValue
        CFI R4 SameValue
        CFI R5 SameValue
        CFI R6 SameValue
        CFI R7 SameValue
        CFI V0 SameValue
        CFI V1 SameValue
        CFI V2 SameValue
        CFI V3 SameValue
        CFI V4 SameValue
        CFI V5 SameValue
        CFI V6 SameValue
        CFI V7 SameValue
        CFI V8 SameValue
        CFI V9 SameValue
        CFI V10 SameValue
        CFI V11 SameValue
        CFI V12 SameValue
        CFI V13 SameValue
        CFI V14 SameValue
        CFI V15 SameValue
        CFI PSPH Undefined
        CFI PSPL Undefined
        CFI XSPH Undefined
        CFI XSPL Undefined
        CFI ?RET Concat
        CFI ?BRET_EXT SameValue
        CFI ?RET_HIGH Frame(CFA_SP, 2)
        CFI ?RET_LOW Frame(CFA_SP, 1)
        CFI EndCommon cfiCommon1
        
HalUARTOpen         SYMBOL "HalUARTOpen"
HalUARTRead         SYMBOL "HalUARTRead"
Hal_UART_RxBufLen   SYMBOL "Hal_UART_RxBufLen"
strlen              SYMBOL "strlen"
osal_memcpy         SYMBOL "osal_memcpy"
HalUARTWrite        SYMBOL "HalUARTWrite"
osal_strlen         SYMBOL "osal_strlen"
memset              SYMBOL "memset"
sprintf             SYMBOL "sprintf"
strstr              SYMBOL "strstr"
LCD_P8x16Str        SYMBOL "LCD_P8x16Str"
??HalUARTOpen?relay SYMBOL "?relay", HalUARTOpen
??HalUARTRead?relay SYMBOL "?relay", HalUARTRead
??HalUARTWrite?relay SYMBOL "?relay", HalUARTWrite
??Hal_UART_RxBufLen?relay SYMBOL "?relay", Hal_UART_RxBufLen
??LCD_P8x16Str?relay SYMBOL "?relay", LCD_P8x16Str
??memset?relay      SYMBOL "?relay", memset
??osal_memcpy?relay SYMBOL "?relay", osal_memcpy
??osal_strlen?relay SYMBOL "?relay", osal_strlen
??sprintf?relay     SYMBOL "?relay", sprintf
??strlen?relay      SYMBOL "?relay", strlen
??strstr?relay      SYMBOL "?relay", strstr
IOT_RecdataPut      SYMBOL "IOT_RecdataPut"
??IOT_RecdataPut?relay SYMBOL "?relay", IOT_RecdataPut
IOT_WiFiInit        SYMBOL "IOT_WiFiInit"
??IOT_WiFiInit?relay SYMBOL "?relay", IOT_WiFiInit
IotConntect         SYMBOL "IotConntect"
??IotConntect?relay SYMBOL "?relay", IotConntect
SerialCallBack      SYMBOL "SerialCallBack"
??SerialCallBack?relay SYMBOL "?relay", SerialCallBack
UartInitPort0       SYMBOL "UartInitPort0"
??UartInitPort0?relay SYMBOL "?relay", UartInitPort0
UartInitPort1       SYMBOL "UartInitPort1"
??UartInitPort1?relay SYMBOL "?relay", UartInitPort1

        EXTERN HalUARTOpen
        FUNCTION HalUARTOpen,0202H
        ARGFRAME ISTACK, 2, STACK
        ARGFRAME PSTACK, 0, STACK
        ARGFRAME XSTACK, 29, STACK
        ARGFRAME IOVERLAY, 0, STATIC
        ARGFRAME DOVERLAY, 0, STATIC
        EXTERN HalUARTRead
        FUNCTION HalUARTRead,0202H
        ARGFRAME ISTACK, 0, STACK
        ARGFRAME PSTACK, 0, STACK
        ARGFRAME XSTACK, 139, STACK
        ARGFRAME IOVERLAY, 0, STATIC
        ARGFRAME DOVERLAY, 0, STATIC
        EXTERN Hal_UART_RxBufLen
        FUNCTION Hal_UART_RxBufLen,0202H
        ARGFRAME ISTACK, 0, STACK
        ARGFRAME PSTACK, 0, STACK
        ARGFRAME XSTACK, 139, STACK
        ARGFRAME IOVERLAY, 0, STATIC
        ARGFRAME DOVERLAY, 0, STATIC
        EXTERN strlen
        FUNCTION strlen,010202H
        ARGFRAME ISTACK, 0, STACK
        ARGFRAME PSTACK, 0, STACK
        ARGFRAME XSTACK, 142, STACK
        ARGFRAME IOVERLAY, 0, STATIC
        ARGFRAME DOVERLAY, 0, STATIC
        EXTERN osal_memcpy
        FUNCTION osal_memcpy,0202H
        ARGFRAME ISTACK, 0, STACK
        ARGFRAME PSTACK, 0, STACK
        ARGFRAME XSTACK, 142, STACK
        ARGFRAME IOVERLAY, 0, STATIC
        ARGFRAME DOVERLAY, 0, STATIC
        EXTERN HalUARTWrite
        FUNCTION HalUARTWrite,0202H
        ARGFRAME ISTACK, 2, STACK
        ARGFRAME PSTACK, 0, STACK
        ARGFRAME XSTACK, 210, STACK
        ARGFRAME IOVERLAY, 0, STATIC
        ARGFRAME DOVERLAY, 0, STATIC
        EXTERN osal_strlen
        FUNCTION osal_strlen,0202H
        ARGFRAME ISTACK, 2, STACK
        ARGFRAME PSTACK, 0, STACK
        ARGFRAME XSTACK, 210, STACK
        ARGFRAME IOVERLAY, 0, STATIC
        ARGFRAME DOVERLAY, 0, STATIC
        EXTERN memset
        FUNCTION memset,010202H
        ARGFRAME ISTACK, 0, STACK
        ARGFRAME PSTACK, 0, STACK
        ARGFRAME XSTACK, 212, STACK
        ARGFRAME IOVERLAY, 0, STATIC
        ARGFRAME DOVERLAY, 0, STATIC
        EXTERN sprintf
        FUNCTION sprintf,0202H
        ARGFRAME ISTACK, 0, STACK
        ARGFRAME PSTACK, 0, STACK
        ARGFRAME XSTACK, 214, STACK
        ARGFRAME IOVERLAY, 0, STATIC
        ARGFRAME DOVERLAY, 0, STATIC
        EXTERN strstr
        FUNCTION strstr,010202H
        ARGFRAME ISTACK, 0, STACK
        ARGFRAME PSTACK, 0, STACK
        ARGFRAME XSTACK, 10, STACK
        ARGFRAME IOVERLAY, 0, STATIC
        ARGFRAME DOVERLAY, 0, STATIC
        EXTERN LCD_P8x16Str
        FUNCTION LCD_P8x16Str,0202H
        ARGFRAME ISTACK, 0, STACK
        ARGFRAME PSTACK, 0, STACK
        ARGFRAME XSTACK, 10, STACK
        ARGFRAME IOVERLAY, 0, STATIC
        ARGFRAME DOVERLAY, 0, STATIC
        EXTERN ??HalUARTOpen?relay
        FUNCTION ??HalUARTOpen?relay,00H
        EXTERN ??HalUARTRead?relay
        FUNCTION ??HalUARTRead?relay,00H
        EXTERN ??HalUARTWrite?relay
        FUNCTION ??HalUARTWrite?relay,00H
        EXTERN ??Hal_UART_RxBufLen?relay
        FUNCTION ??Hal_UART_RxBufLen?relay,00H
        EXTERN ??LCD_P8x16Str?relay
        FUNCTION ??LCD_P8x16Str?relay,00H
        EXTERN ??memset?relay
        FUNCTION ??memset?relay,00H
        EXTERN ??osal_memcpy?relay
        FUNCTION ??osal_memcpy?relay,00H
        EXTERN ??osal_strlen?relay
        FUNCTION ??osal_strlen?relay,00H
        EXTERN ??sprintf?relay
        FUNCTION ??sprintf?relay,00H
        EXTERN ??strlen?relay
        FUNCTION ??strlen?relay,00H
        EXTERN ??strstr?relay
        FUNCTION ??strstr?relay,00H

// D:\test_nb\代码\多终端\Projects\zstack\Samples\GenericApp\Source\IOT.c
//    1 #include <ioCC2530.h>
//    2 #include "OnBoard.h"
//    3 #include "IOT.h"
//    4 #include "delay.h"
//    5 #include "ZComDef.h"
//    6 #include "ZGlobals.h"
//    7 #include "OnBoard.h"
//    8 #include "OSAL.h"
//    9 #include "MT.h"
//   10 #include "MT_SYS.h"
//   11 #include "DebugTrace.h"
//   12 
//   13 /* Hal */
//   14 #include "hal_lcd.h"
//   15 #include "hal_mcu.h"
//   16 #include "hal_timer.h"
//   17 #include "hal_key.h"
//   18 #include "hal_led.h"
//   19 #include "hal_uart.h"
//   20 #include "string.h"
//   21 #include "stdlib.h"
//   22 #include "stdio.h"
//   23 /* Allow access macRandomByte() */
//   24 #include "mac_radio_defs.h"

        RSEG XDATA_Z:XDATA:NOROOT(0)
        DATA8
//   25 unsigned char uartbuf2[200]={0x00};
uartbuf2:
        DS 200
        REQUIRE __INIT_XDATA_Z

        RSEG XDATA_Z:XDATA:NOROOT(0)
        DATA8
//   26 unsigned char uchBuf[10] = {0x00};
uchBuf:
        DS 10
        REQUIRE __INIT_XDATA_Z

        RSEG XDATA_Z:XDATA:NOROOT(0)
        DATA8
//   27 stWiFi WiFiStatus;
WiFiStatus:
        DS 23
        REQUIRE __INIT_XDATA_Z
//   28 extern void LCD_P8x16Str(unsigned char x, unsigned char y,unsigned char ch[]);
//   29 extern void HalLcdDisplayPercentBar( char *title, uint8 value );
//   30 extern void LCD_P16x16Ch(unsigned char x, unsigned char y, unsigned char N);
//   31 
//   32 

        RSEG BANKED_CODE:CODE:NOROOT(0)
//   33 void UartInitPort0(void )
UartInitPort0:
        CFI Block cfiBlock0 Using cfiCommon0
        CFI Function UartInitPort0
        CODE
//   34 {
        FUNCALL UartInitPort0, HalUARTOpen
        LOCFRAME ISTACK, 2, STACK
        LOCFRAME PSTACK, 0, STACK
        LOCFRAME XSTACK, 29, STACK
        LOCFRAME IOVERLAY, 0, STATIC
        LOCFRAME DOVERLAY, 0, STATIC
        ARGFRAME ISTACK, 2, STACK
        ARGFRAME PSTACK, 0, STACK
        ARGFRAME XSTACK, 29, STACK
        ARGFRAME IOVERLAY, 0, STATIC
        ARGFRAME DOVERLAY, 0, STATIC
        PUSH    DPL
        CFI DPL0 Frame(CFA_SP, 4)
        CFI CFA_SP SP+-4
        PUSH    DPH
        CFI DPH0 Frame(CFA_SP, 5)
        CFI CFA_SP SP+-5
        ; Saved register size: 2
        ; Auto size: 29
        MOV     A,#-0x1d
        LCALL   ?ALLOC_XSTACK8
        CFI CFA_XSP16 add(XSP16, 29)
//   35 
//   36           halUARTCfg_t uartConfig;//顶一个串口结构体
//   37           uartConfig.configured             =TRUE;//串口配置为真
        MOV     DPL,?XSP + 0
        MOV     DPH,?XSP + 1
        MOV     A,#0x1
        MOVX    @DPTR,A
//   38           uartConfig.baudRate               =HAL_UART_BR_115200;//波特率为115200
        LCALL   ?XSTACK_DISP0_8
        MOV     A,#0x4
        MOVX    @DPTR,A
//   39           uartConfig.flowControl            =FALSE;//流控制为假
        MOV     A,#0x2
        LCALL   ?XSTACK_DISP0_8
        CLR     A
        MOVX    @DPTR,A
//   40           uartConfig.callBackFunc       =    rxCB;
        MOV     A,#0x1b
        LCALL   ?XSTACK_DISP0_8
        MOV     A,#??rxCB?relay & 0xff
        MOVX    @DPTR,A
        INC     DPTR
        MOV     A,#(??rxCB?relay >> 8) & 0xff
        LCALL   ?Subroutine5 & 0xFFFF
//   41           HalUARTOpen(HAL_UART_PORT_0,&uartConfig);// 打开串口0
??CrossCallReturnLabel_15:
        MOV     R1,#0x0
        CFI EndBlock cfiBlock0
        REQUIRE ?Subroutine0
        ; // Fall through to label ?Subroutine0
//   42 }

        RSEG BANKED_CODE:CODE:NOROOT(0)
?Subroutine0:
        CFI Block cfiBlock1 Using cfiCommon0
        CFI NoFunction
        CFI CFA_SP SP+-5
        CFI CFA_XSP16 add(XSP16, 29)
        CFI DPL0 Frame(CFA_SP, 4)
        CFI DPH0 Frame(CFA_SP, 5)
        LCALL   ??HalUARTOpen?relay
        MOV     A,#0x1d
        LCALL   ?DEALLOC_XSTACK8
        CFI EndBlock cfiBlock1
        REQUIRE ??Subroutine8_0
        ; // Fall through to label ??Subroutine8_0

        RSEG BANKED_CODE:CODE:NOROOT(0)
??Subroutine8_0:
        CFI Block cfiBlock2 Using cfiCommon0
        CFI NoFunction
        CFI CFA_SP SP+-5
        CFI DPL0 Frame(CFA_SP, 4)
        CFI DPH0 Frame(CFA_SP, 5)
        POP     DPH
        CFI CFA_SP SP+-4
        CFI DPH0 SameValue
        POP     DPL
        CFI CFA_SP SP+-3
        CFI DPL0 SameValue
        LJMP    ?BRET
        CFI EndBlock cfiBlock2
//   43 //下面这个回调函数是我加的，从串口0读取n个字符，放进uartbuf

        RSEG BANKED_CODE:CODE:NOROOT(0)
//   44 static void rxCB(uint8 port,uint8 event)
rxCB:
        CFI Block cfiBlock3 Using cfiCommon0
        CFI Function rxCB
        CODE
//   45 {
        FUNCALL rxCB, HalUARTRead
        LOCFRAME ISTACK, 0, STACK
        LOCFRAME PSTACK, 0, STACK
        LOCFRAME XSTACK, 139, STACK
        LOCFRAME IOVERLAY, 0, STATIC
        LOCFRAME DOVERLAY, 0, STATIC
        ARGFRAME ISTACK, 0, STACK
        ARGFRAME PSTACK, 0, STACK
        ARGFRAME XSTACK, 139, STACK
        ARGFRAME IOVERLAY, 0, STATIC
        ARGFRAME DOVERLAY, 0, STATIC
        FUNCALL rxCB, Hal_UART_RxBufLen
        LOCFRAME ISTACK, 0, STACK
        LOCFRAME PSTACK, 0, STACK
        LOCFRAME XSTACK, 139, STACK
        LOCFRAME IOVERLAY, 0, STATIC
        LOCFRAME DOVERLAY, 0, STATIC
        ARGFRAME ISTACK, 0, STACK
        ARGFRAME PSTACK, 0, STACK
        ARGFRAME XSTACK, 139, STACK
        ARGFRAME IOVERLAY, 0, STATIC
        ARGFRAME DOVERLAY, 0, STATIC
        FUNCALL rxCB, strlen
        LOCFRAME ISTACK, 0, STACK
        LOCFRAME PSTACK, 0, STACK
        LOCFRAME XSTACK, 139, STACK
        LOCFRAME IOVERLAY, 0, STATIC
        LOCFRAME DOVERLAY, 0, STATIC
        ARGFRAME ISTACK, 0, STACK
        ARGFRAME PSTACK, 0, STACK
        ARGFRAME XSTACK, 139, STACK
        ARGFRAME IOVERLAY, 0, STATIC
        ARGFRAME DOVERLAY, 0, STATIC
        FUNCALL rxCB, strlen
        LOCFRAME ISTACK, 0, STACK
        LOCFRAME PSTACK, 0, STACK
        LOCFRAME XSTACK, 142, STACK
        LOCFRAME IOVERLAY, 0, STATIC
        LOCFRAME DOVERLAY, 0, STATIC
        ARGFRAME ISTACK, 0, STACK
        ARGFRAME PSTACK, 0, STACK
        ARGFRAME XSTACK, 142, STACK
        ARGFRAME IOVERLAY, 0, STATIC
        ARGFRAME DOVERLAY, 0, STATIC
        FUNCALL rxCB, osal_memcpy
        LOCFRAME ISTACK, 0, STACK
        LOCFRAME PSTACK, 0, STACK
        LOCFRAME XSTACK, 142, STACK
        LOCFRAME IOVERLAY, 0, STATIC
        LOCFRAME DOVERLAY, 0, STATIC
        ARGFRAME ISTACK, 0, STACK
        ARGFRAME PSTACK, 0, STACK
        ARGFRAME XSTACK, 142, STACK
        ARGFRAME IOVERLAY, 0, STATIC
        ARGFRAME DOVERLAY, 0, STATIC
        MOV     A,#-0xb
        LCALL   ?BANKED_ENTER_XDATA
        CFI DPH0 load(1, XDATA, add(CFA_XSP16, literal(-1)))
        CFI DPL0 load(1, XDATA, add(CFA_XSP16, literal(-2)))
        CFI ?BRET_EXT load(1, XDATA, add(CFA_XSP16, literal(-3)))
        CFI ?RET_HIGH load(1, XDATA, add(CFA_XSP16, literal(-4)))
        CFI ?RET_LOW load(1, XDATA, add(CFA_XSP16, literal(-5)))
        CFI R7 load(1, XDATA, add(CFA_XSP16, literal(-6)))
        CFI V2 load(1, XDATA, add(CFA_XSP16, literal(-7)))
        CFI V1 load(1, XDATA, add(CFA_XSP16, literal(-8)))
        CFI V0 load(1, XDATA, add(CFA_XSP16, literal(-9)))
        CFI VB load(1, XDATA, add(CFA_XSP16, literal(-10)))
        CFI R6 load(1, XDATA, add(CFA_XSP16, literal(-11)))
        CFI CFA_SP SP+0
        CFI CFA_XSP16 add(XSP16, 11)
        ; Saved register size: 11
        ; Auto size: 128
        MOV     A,#-0x80
        LCALL   ?ALLOC_XSTACK8
        CFI CFA_XSP16 add(XSP16, 139)
//   46   //int ipos = 0;  //!< 用于偏移量
//   47   //unsigned char szEndID[2] = {0};//!< 用来存储是第几个终端
//   48   unsigned char index=0,uartbuf[128]={0x00};
        MOV     R6,#0x0
        MOV     DPL,?XSP + 0
        MOV     DPH,?XSP + 1
        MOV     R4,DPL
        MOV     R5,DPH
        MOV     DPH,#(`?<Constant {0}>` >> 8) & 0xff
        MOV     DPL,#`?<Constant {0}>` & 0xff
        MOV     A,#-0x80
        LCALL   ?MOVE_LONG8_XDATA_XDATA
        SJMP    ??rxCB_0
//   49  while (Hal_UART_RxBufLen(0)) //!< 检测串口数据是否接收完成
//   50   {
//   51     HalUARTRead (0,&uartbuf[index], 1);  //!< 把数据接收放到buf中
??rxCB_1:
        ; Setup parameters for call to function HalUARTRead
        MOV     R4,#0x1
        MOV     R5,#0x0
        MOV     ?V0 + 0,R6
        MOV     DPL,?XSP + 0
        MOV     DPH,?XSP + 1
        MOV     A,DPL
        ADD     A,?V0 + 0
        MOV     R2,A
        MOV     A,DPH
        ADDC    A,#0x0
        MOV     R3,A
        MOV     R1,#0x0
        LCALL   ??HalUARTRead?relay
//   52     index++;                           //!< 记录字符数
        INC     R6
//   53   }
??rxCB_0:
        ; Setup parameters for call to function Hal_UART_RxBufLen
        MOV     R1,#0x0
        LCALL   ?Subroutine7 & 0xFFFF
??CrossCallReturnLabel_20:
        JNZ     ??rxCB_1
//   54  if(strlen((char *)uartbuf)!=0)
        ; Setup parameters for call to function strlen
        MOV     DPL,?XSP + 0
        MOV     DPH,?XSP + 1
        MOV     R2,DPL
        MOV     R3,DPH
        LCALL   ??strlen?relay
        MOV     ?V0 + 1,R3
        MOV     A,R2
        ORL     A,?V0 + 1
        JZ      ??rxCB_2
//   55  {
//   56     /*sprintf((char *)szEndID,"%d",ENDNUM);
//   57     ipos = strlen((char *)szEndID);//!< 用于做偏移量的使用
//   58     osal_memcpy(uchBuf,szEndID,ipos);//!< 先保存
//   59     //!< 从串口接受要发送的数据
//   60     osal_memcpy(uchBuf+ipos,uartbuf,strlen((char *)uartbuf));*/
//   61    osal_memcpy(uchBuf,uartbuf,strlen((char *)uartbuf));
        ; Setup parameters for call to function osal_memcpy
        MOV     DPL,?XSP + 0
        MOV     DPH,?XSP + 1
        MOV     R1,DPL
        MOV     R2,DPH
        MOV     ?V0 + 0,R1
        MOV     ?V0 + 1,R2
        MOV     ?V0 + 2,#0x0
        MOV     R0,#?V0 + 0
        LCALL   ?PUSH_XSTACK_I_THREE
        CFI CFA_XSP16 add(XSP16, 142)
        ; Setup parameters for call to function strlen
        MOV     A,#0x3
        LCALL   ?XSTACK_DISP0_8
        MOV     R2,DPL
        MOV     R3,DPH
        LCALL   ??strlen?relay
        MOV     A,R2
        MOV     R4,A
        MOV     A,R3
        MOV     R5,A
        MOV     R2,#uchBuf & 0xff
        MOV     R3,#(uchBuf >> 8) & 0xff
        LCALL   ??osal_memcpy?relay
        MOV     A,#0x3
        LCALL   ?DEALLOC_XSTACK8
        CFI CFA_XSP16 add(XSP16, 139)
//   62  }
//   63 }
??rxCB_2:
        MOV     A,#-0x80
        LCALL   ?DEALLOC_XSTACK8
        CFI CFA_XSP16 add(XSP16, 11)
        MOV     R7,#0x3
        LJMP    ?BANKED_LEAVE_XDATA
        CFI EndBlock cfiBlock3
//   64 

        RSEG BANKED_CODE:CODE:NOROOT(0)
//   65 void UartInitPort1( halUARTCBack_t SerialCallBack )//配置USART1接到IOT模块
UartInitPort1:
        CFI Block cfiBlock4 Using cfiCommon0
        CFI Function UartInitPort1
        CODE
//   66 {
        FUNCALL UartInitPort1, HalUARTOpen
        LOCFRAME ISTACK, 2, STACK
        LOCFRAME PSTACK, 0, STACK
        LOCFRAME XSTACK, 29, STACK
        LOCFRAME IOVERLAY, 0, STATIC
        LOCFRAME DOVERLAY, 0, STATIC
        ARGFRAME ISTACK, 2, STACK
        ARGFRAME PSTACK, 0, STACK
        ARGFRAME XSTACK, 29, STACK
        ARGFRAME IOVERLAY, 0, STATIC
        ARGFRAME DOVERLAY, 0, STATIC
        PUSH    DPL
        CFI DPL0 Frame(CFA_SP, 4)
        CFI CFA_SP SP+-4
        PUSH    DPH
        CFI DPH0 Frame(CFA_SP, 5)
        CFI CFA_SP SP+-5
        ; Saved register size: 2
        ; Auto size: 29
        MOV     A,#-0x1d
        LCALL   ?ALLOC_XSTACK8
        CFI CFA_XSP16 add(XSP16, 29)
//   67   halUARTCfg_t uartConfig;
//   68 
//   69   // configure UART
//   70   uartConfig.configured           = TRUE;
        MOV     DPL,?XSP + 0
        MOV     DPH,?XSP + 1
        MOV     A,#0x1
        MOVX    @DPTR,A
//   71   uartConfig.configured             =TRUE;//串口配置为真
//   72   uartConfig.baudRate               =HAL_UART_BR_115200;//波特率为115200
        LCALL   ?XSTACK_DISP0_8
        MOV     A,#0x4
        MOVX    @DPTR,A
//   73   uartConfig.flowControl            =FALSE;//流控制为假
        MOV     A,#0x2
        LCALL   ?XSTACK_DISP0_8
        CLR     A
        MOVX    @DPTR,A
//   74   uartConfig.callBackFunc         = SerialCallBack;
        MOV     A,#0x1b
        LCALL   ?XSTACK_DISP0_8
        MOV     A,R2
        MOVX    @DPTR,A
        INC     DPTR
        MOV     A,R3
        LCALL   ?Subroutine5 & 0xFFFF
//   75   // start UART
//   76   // Note: Assumes no issue opening UART port.
//   77   HalUARTOpen( HAL_UART_PORT_1, &uartConfig );
??CrossCallReturnLabel_16:
        MOV     R1,#0x1
        LJMP    ?Subroutine0 & 0xFFFF
        CFI EndBlock cfiBlock4
//   78 
//   79 }

        RSEG BANKED_CODE:CODE:NOROOT(0)
?Subroutine5:
        CFI Block cfiCond5 Using cfiCommon0
        CFI NoFunction
        CFI Conditional ??CrossCallReturnLabel_15
        CFI DPL0 Frame(CFA_SP, 4)
        CFI DPH0 Frame(CFA_SP, 5)
        CFI CFA_SP SP+-5
        CFI CFA_XSP16 add(XSP16, 29)
        CFI Block cfiCond6 Using cfiCommon0
        CFI (cfiCond6) NoFunction
        CFI (cfiCond6) Conditional ??CrossCallReturnLabel_16
        CFI (cfiCond6) DPL0 Frame(CFA_SP, 4)
        CFI (cfiCond6) DPH0 Frame(CFA_SP, 5)
        CFI (cfiCond6) CFA_SP SP+-5
        CFI (cfiCond6) CFA_XSP16 add(XSP16, 29)
        CFI Block cfiPicker7 Using cfiCommon1
        CFI (cfiPicker7) NoFunction
        CFI (cfiPicker7) Picker
        MOVX    @DPTR,A
        ; Setup parameters for call to function HalUARTOpen
        ; Setup parameters for call to function HalUARTOpen
        MOV     DPL,?XSP + 0
        MOV     DPH,?XSP + 1
        MOV     R2,DPL
        MOV     R3,DPH
        RET
        CFI EndBlock cfiCond5
        CFI EndBlock cfiCond6
        CFI EndBlock cfiPicker7
//   80 
//   81 
//   82 //串口接收函数 大部分的时候都在这里面做 模块的反馈信息
//   83 //下面这个回调函数是我加的，从串口1读取n个字符，放进uartbuf

        RSEG BANKED_CODE:CODE:NOROOT(0)
//   84  void SerialCallBack(uint8 port,uint8 event)
SerialCallBack:
        CFI Block cfiBlock8 Using cfiCommon0
        CFI Function SerialCallBack
        CODE
//   85 {
        FUNCALL SerialCallBack, HalUARTRead
        LOCFRAME ISTACK, 0, STACK
        LOCFRAME PSTACK, 0, STACK
        LOCFRAME XSTACK, 10, STACK
        LOCFRAME IOVERLAY, 0, STATIC
        LOCFRAME DOVERLAY, 0, STATIC
        ARGFRAME ISTACK, 0, STACK
        ARGFRAME PSTACK, 0, STACK
        ARGFRAME XSTACK, 10, STACK
        ARGFRAME IOVERLAY, 0, STATIC
        ARGFRAME DOVERLAY, 0, STATIC
        FUNCALL SerialCallBack, Hal_UART_RxBufLen
        LOCFRAME ISTACK, 0, STACK
        LOCFRAME PSTACK, 0, STACK
        LOCFRAME XSTACK, 10, STACK
        LOCFRAME IOVERLAY, 0, STATIC
        LOCFRAME DOVERLAY, 0, STATIC
        ARGFRAME ISTACK, 0, STACK
        ARGFRAME PSTACK, 0, STACK
        ARGFRAME XSTACK, 10, STACK
        ARGFRAME IOVERLAY, 0, STATIC
        ARGFRAME DOVERLAY, 0, STATIC
        FUNCALL SerialCallBack, IOT_RecdataPut
        LOCFRAME ISTACK, 0, STACK
        LOCFRAME PSTACK, 0, STACK
        LOCFRAME XSTACK, 10, STACK
        LOCFRAME IOVERLAY, 0, STATIC
        LOCFRAME DOVERLAY, 0, STATIC
        ARGFRAME ISTACK, 0, STACK
        ARGFRAME PSTACK, 0, STACK
        ARGFRAME XSTACK, 10, STACK
        ARGFRAME IOVERLAY, 0, STATIC
        ARGFRAME DOVERLAY, 0, STATIC
        FUNCALL SerialCallBack, HalUARTWrite
        LOCFRAME ISTACK, 0, STACK
        LOCFRAME PSTACK, 0, STACK
        LOCFRAME XSTACK, 10, STACK
        LOCFRAME IOVERLAY, 0, STATIC
        LOCFRAME DOVERLAY, 0, STATIC
        ARGFRAME ISTACK, 0, STACK
        ARGFRAME PSTACK, 0, STACK
        ARGFRAME XSTACK, 10, STACK
        ARGFRAME IOVERLAY, 0, STATIC
        ARGFRAME DOVERLAY, 0, STATIC
        MOV     A,#-0xa
        LCALL   ?BANKED_ENTER_XDATA
        CFI DPH0 load(1, XDATA, add(CFA_XSP16, literal(-1)))
        CFI DPL0 load(1, XDATA, add(CFA_XSP16, literal(-2)))
        CFI ?BRET_EXT load(1, XDATA, add(CFA_XSP16, literal(-3)))
        CFI ?RET_HIGH load(1, XDATA, add(CFA_XSP16, literal(-4)))
        CFI ?RET_LOW load(1, XDATA, add(CFA_XSP16, literal(-5)))
        CFI R7 load(1, XDATA, add(CFA_XSP16, literal(-6)))
        CFI V1 load(1, XDATA, add(CFA_XSP16, literal(-7)))
        CFI V0 load(1, XDATA, add(CFA_XSP16, literal(-8)))
        CFI VB load(1, XDATA, add(CFA_XSP16, literal(-9)))
        CFI R6 load(1, XDATA, add(CFA_XSP16, literal(-10)))
        CFI CFA_SP SP+0
        CFI CFA_XSP16 add(XSP16, 10)
        ; Saved register size: 10
        ; Auto size: 0
//   86 
//   87   unsigned char unflag=0,j=0;
        MOV     R7,#0x0
        MOV     R6,#0x0
        SJMP    ??SerialCallBack_0
//   88   //HalUARTRead(0,uartbuf,1);
//   89   while (Hal_UART_RxBufLen(1)) //检测串口数据是否接收完成
//   90   {
//   91     HalUARTRead (1,&uartbuf2[j], 1);  //把数据接收放到buf中
??SerialCallBack_1:
        ; Setup parameters for call to function HalUARTRead
        MOV     R4,#0x1
        MOV     R5,#0x0
        MOV     ?V0 + 0,R6
        MOV     A,#uartbuf2 & 0xff
        ADD     A,?V0 + 0
        MOV     R2,A
        MOV     A,#(uartbuf2 >> 8) & 0xff
        ADDC    A,#0x0
        MOV     R3,A
        MOV     R1,#0x1
        LCALL   ??HalUARTRead?relay
//   92     j++;                           //记录字符数
        INC     R6
//   93     unflag=1;                         //已经从串口接收到信息
        MOV     R7,#0x1
//   94   } 
??SerialCallBack_0:
        ; Setup parameters for call to function Hal_UART_RxBufLen
        MOV     R1,#0x1
        LCALL   ?Subroutine7 & 0xFFFF
??CrossCallReturnLabel_21:
        JNZ     ??SerialCallBack_1
//   95  
//   96  if(unflag)//收到数据了 收据全部收完了
        MOV     A,R7
        JZ      ??SerialCallBack_2
//   97  {
//   98     IOT_RecdataPut();          //对模块接收到的数据进行处理
        ; Setup parameters for call to function IOT_RecdataPut
        LCALL   ??IOT_RecdataPut?relay
//   99     HalUARTWrite(0,uartbuf2,j); //将接收到的数据打印出来
        ; Setup parameters for call to function HalUARTWrite
        MOV     ?V0 + 0,R6
        MOV     R4,?V0 + 0
        MOV     R5,#0x0
        MOV     R2,#uartbuf2 & 0xff
        MOV     R3,#(uartbuf2 >> 8) & 0xff
        MOV     R1,#0x0
        LCALL   ??HalUARTWrite?relay
//  100     WiFiStatus.Reclen=j;       //获取接收到的数据长度
        MOV     A,R6
        MOV     DPTR,#WiFiStatus + 2
        MOVX    @DPTR,A
        CFI EndBlock cfiBlock8
//  101    }
//  102  }
??SerialCallBack_2:
        REQUIRE ?Subroutine1
        ; // Fall through to label ?Subroutine1

        RSEG BANKED_CODE:CODE:NOROOT(0)
?Subroutine1:
        CFI Block cfiBlock9 Using cfiCommon0
        CFI NoFunction
        CFI CFA_SP SP+0
        CFI CFA_XSP16 add(XSP16, 10)
        CFI VB load(1, XDATA, add(CFA_XSP16, literal(-9)))
        CFI DPL0 load(1, XDATA, add(CFA_XSP16, literal(-2)))
        CFI DPH0 load(1, XDATA, add(CFA_XSP16, literal(-1)))
        CFI R6 load(1, XDATA, add(CFA_XSP16, literal(-10)))
        CFI R7 load(1, XDATA, add(CFA_XSP16, literal(-6)))
        CFI V0 load(1, XDATA, add(CFA_XSP16, literal(-8)))
        CFI V1 load(1, XDATA, add(CFA_XSP16, literal(-7)))
        CFI ?BRET_EXT load(1, XDATA, add(CFA_XSP16, literal(-3)))
        CFI ?RET_HIGH load(1, XDATA, add(CFA_XSP16, literal(-4)))
        CFI ?RET_LOW load(1, XDATA, add(CFA_XSP16, literal(-5)))
        MOV     R7,#0x2
        LJMP    ?BANKED_LEAVE_XDATA
        CFI EndBlock cfiBlock9

        RSEG BANKED_CODE:CODE:NOROOT(0)
?Subroutine7:
        CFI Block cfiCond10 Using cfiCommon0
        CFI NoFunction
        CFI Conditional ??CrossCallReturnLabel_20
        CFI R6 load(1, XDATA, add(CFA_XSP16, literal(-11)))
        CFI VB load(1, XDATA, add(CFA_XSP16, literal(-10)))
        CFI V0 load(1, XDATA, add(CFA_XSP16, literal(-9)))
        CFI V1 load(1, XDATA, add(CFA_XSP16, literal(-8)))
        CFI V2 load(1, XDATA, add(CFA_XSP16, literal(-7)))
        CFI R7 load(1, XDATA, add(CFA_XSP16, literal(-6)))
        CFI ?RET_LOW load(1, XDATA, add(CFA_XSP16, literal(-5)))
        CFI ?RET_HIGH load(1, XDATA, add(CFA_XSP16, literal(-4)))
        CFI ?BRET_EXT load(1, XDATA, add(CFA_XSP16, literal(-3)))
        CFI DPL0 load(1, XDATA, add(CFA_XSP16, literal(-2)))
        CFI DPH0 load(1, XDATA, add(CFA_XSP16, literal(-1)))
        CFI CFA_SP SP+0
        CFI CFA_XSP16 add(XSP16, 139)
        CFI Block cfiCond11 Using cfiCommon0
        CFI (cfiCond11) NoFunction
        CFI (cfiCond11) Conditional ??CrossCallReturnLabel_21
        CFI (cfiCond11) R6 load(1, XDATA, add(CFA_XSP16, literal(-10)))
        CFI (cfiCond11) VB load(1, XDATA, add(CFA_XSP16, literal(-9)))
        CFI (cfiCond11) V0 load(1, XDATA, add(CFA_XSP16, literal(-8)))
        CFI (cfiCond11) V1 load(1, XDATA, add(CFA_XSP16, literal(-7)))
        CFI (cfiCond11) R7 load(1, XDATA, add(CFA_XSP16, literal(-6)))
        CFI (cfiCond11) ?RET_LOW load(1, XDATA, add(CFA_XSP16, literal(-5)))
        CFI (cfiCond11) ?RET_HIGH load(1, XDATA, add(CFA_XSP16, literal(-4)))
        CFI (cfiCond11) ?BRET_EXT load(1, XDATA, add(CFA_XSP16, literal(-3)))
        CFI (cfiCond11) DPL0 load(1, XDATA, add(CFA_XSP16, literal(-2)))
        CFI (cfiCond11) DPH0 load(1, XDATA, add(CFA_XSP16, literal(-1)))
        CFI (cfiCond11) CFA_SP SP+0
        CFI (cfiCond11) CFA_XSP16 add(XSP16, 10)
        CFI Block cfiPicker12 Using cfiCommon1
        CFI (cfiPicker12) NoFunction
        CFI (cfiPicker12) Picker
        LCALL   ??Hal_UART_RxBufLen?relay
        MOV     ?V0 + 1,R3
        MOV     A,R2
        ORL     A,?V0 + 1
        RET
        CFI EndBlock cfiCond10
        CFI EndBlock cfiCond11
        CFI EndBlock cfiPicker12
//  103 //unsigned char isBUSY=0; //是否切换到手动模式       
//  104 

        RSEG BANKED_CODE:CODE:NOROOT(0)
//  105 void IOT_WiFiInit(void)//初始化IOT 
IOT_WiFiInit:
        CFI Block cfiBlock13 Using cfiCommon0
        CFI Function IOT_WiFiInit
        CODE
//  106 { 
        FUNCALL IOT_WiFiInit, osal_strlen
        LOCFRAME ISTACK, 2, STACK
        LOCFRAME PSTACK, 0, STACK
        LOCFRAME XSTACK, 0, STACK
        LOCFRAME IOVERLAY, 0, STATIC
        LOCFRAME DOVERLAY, 0, STATIC
        ARGFRAME ISTACK, 2, STACK
        ARGFRAME PSTACK, 0, STACK
        ARGFRAME XSTACK, 0, STACK
        ARGFRAME IOVERLAY, 0, STATIC
        ARGFRAME DOVERLAY, 0, STATIC
        FUNCALL IOT_WiFiInit, HalUARTWrite
        LOCFRAME ISTACK, 2, STACK
        LOCFRAME PSTACK, 0, STACK
        LOCFRAME XSTACK, 0, STACK
        LOCFRAME IOVERLAY, 0, STATIC
        LOCFRAME DOVERLAY, 0, STATIC
        ARGFRAME ISTACK, 2, STACK
        ARGFRAME PSTACK, 0, STACK
        ARGFRAME XSTACK, 0, STACK
        ARGFRAME IOVERLAY, 0, STATIC
        ARGFRAME DOVERLAY, 0, STATIC
        FUNCALL IOT_WiFiInit, HalUARTWrite
        LOCFRAME ISTACK, 2, STACK
        LOCFRAME PSTACK, 0, STACK
        LOCFRAME XSTACK, 0, STACK
        LOCFRAME IOVERLAY, 0, STATIC
        LOCFRAME DOVERLAY, 0, STATIC
        ARGFRAME ISTACK, 2, STACK
        ARGFRAME PSTACK, 0, STACK
        ARGFRAME XSTACK, 0, STACK
        ARGFRAME IOVERLAY, 0, STATIC
        ARGFRAME DOVERLAY, 0, STATIC
        FUNCALL IOT_WiFiInit, osal_strlen
        LOCFRAME ISTACK, 2, STACK
        LOCFRAME PSTACK, 0, STACK
        LOCFRAME XSTACK, 0, STACK
        LOCFRAME IOVERLAY, 0, STATIC
        LOCFRAME DOVERLAY, 0, STATIC
        ARGFRAME ISTACK, 2, STACK
        ARGFRAME PSTACK, 0, STACK
        ARGFRAME XSTACK, 0, STACK
        ARGFRAME IOVERLAY, 0, STATIC
        ARGFRAME DOVERLAY, 0, STATIC
        FUNCALL IOT_WiFiInit, HalUARTWrite
        LOCFRAME ISTACK, 2, STACK
        LOCFRAME PSTACK, 0, STACK
        LOCFRAME XSTACK, 0, STACK
        LOCFRAME IOVERLAY, 0, STATIC
        LOCFRAME DOVERLAY, 0, STATIC
        ARGFRAME ISTACK, 2, STACK
        ARGFRAME PSTACK, 0, STACK
        ARGFRAME XSTACK, 0, STACK
        ARGFRAME IOVERLAY, 0, STATIC
        ARGFRAME DOVERLAY, 0, STATIC
        FUNCALL IOT_WiFiInit, HalUARTWrite
        LOCFRAME ISTACK, 2, STACK
        LOCFRAME PSTACK, 0, STACK
        LOCFRAME XSTACK, 0, STACK
        LOCFRAME IOVERLAY, 0, STATIC
        LOCFRAME DOVERLAY, 0, STATIC
        ARGFRAME ISTACK, 2, STACK
        ARGFRAME PSTACK, 0, STACK
        ARGFRAME XSTACK, 0, STACK
        ARGFRAME IOVERLAY, 0, STATIC
        ARGFRAME DOVERLAY, 0, STATIC
        FUNCALL IOT_WiFiInit, osal_strlen
        LOCFRAME ISTACK, 2, STACK
        LOCFRAME PSTACK, 0, STACK
        LOCFRAME XSTACK, 0, STACK
        LOCFRAME IOVERLAY, 0, STATIC
        LOCFRAME DOVERLAY, 0, STATIC
        ARGFRAME ISTACK, 2, STACK
        ARGFRAME PSTACK, 0, STACK
        ARGFRAME XSTACK, 0, STACK
        ARGFRAME IOVERLAY, 0, STATIC
        ARGFRAME DOVERLAY, 0, STATIC
        FUNCALL IOT_WiFiInit, HalUARTWrite
        LOCFRAME ISTACK, 2, STACK
        LOCFRAME PSTACK, 0, STACK
        LOCFRAME XSTACK, 0, STACK
        LOCFRAME IOVERLAY, 0, STATIC
        LOCFRAME DOVERLAY, 0, STATIC
        ARGFRAME ISTACK, 2, STACK
        ARGFRAME PSTACK, 0, STACK
        ARGFRAME XSTACK, 0, STACK
        ARGFRAME IOVERLAY, 0, STATIC
        ARGFRAME DOVERLAY, 0, STATIC
        FUNCALL IOT_WiFiInit, HalUARTWrite
        LOCFRAME ISTACK, 2, STACK
        LOCFRAME PSTACK, 0, STACK
        LOCFRAME XSTACK, 0, STACK
        LOCFRAME IOVERLAY, 0, STATIC
        LOCFRAME DOVERLAY, 0, STATIC
        ARGFRAME ISTACK, 2, STACK
        ARGFRAME PSTACK, 0, STACK
        ARGFRAME XSTACK, 0, STACK
        ARGFRAME IOVERLAY, 0, STATIC
        ARGFRAME DOVERLAY, 0, STATIC
        PUSH    DPL
        CFI DPL0 Frame(CFA_SP, 4)
        CFI CFA_SP SP+-4
        PUSH    DPH
        CFI DPH0 Frame(CFA_SP, 5)
        CFI CFA_SP SP+-5
        ; Saved register size: 2
        ; Auto size: 0
//  107   switch(WiFiStatus.Status)
        MOV     DPTR,#WiFiStatus
        MOVX    A,@DPTR
        JZ      ??IOT_WiFiInit_0
        DEC     A
        JZ      ??IOT_WiFiInit_1
        DEC     A
        JZ      ??IOT_WiFiInit_2
        SJMP    ??IOT_WiFiInit_3
//  108   {
//  109     case 0:
//  110       HalUARTWrite(1,"AT\r\n",osal_strlen("AT\r\n"));//配置发AT命令
??IOT_WiFiInit_0:
        ; Setup parameters for call to function HalUARTWrite
        ; Setup parameters for call to function osal_strlen
        MOV     R2,#`?<Constant "AT\\r\\n">` & 0xff
        MOV     R3,#(`?<Constant "AT\\r\\n">` >> 8) & 0xff
        LCALL   ?Subroutine6 & 0xFFFF
??CrossCallReturnLabel_17:
        MOV     R2,#`?<Constant "AT\\r\\n">` & 0xff
        MOV     R3,#(`?<Constant "AT\\r\\n">` >> 8) & 0xff
        MOV     R1,#0x1
        LCALL   ??HalUARTWrite?relay
//  111       HalUARTWrite(0,"\r\n**CSGSM Connect To MODULE...\r\n",32); //串口提示正在连接模块
        ; Setup parameters for call to function HalUARTWrite
        MOV     R4,#0x20
        MOV     R5,#0x0
        MOV     R2,#`?<Constant "\\r\\n**CSGSM Connect To ...">` & 0xff
        MOV     R3,#(`?<Constant "\\r\\n**CSGSM Connect To ...">` >> 8) & 0xff
        SJMP    ??IOT_WiFiInit_4
//  112     break;
//  113      case 1:
//  114       HalUARTWrite(1,"AT+CWMODE=3\r\n",osal_strlen("AT+CWMODE=3\r\n"));//设置模式
??IOT_WiFiInit_1:
        ; Setup parameters for call to function HalUARTWrite
        ; Setup parameters for call to function osal_strlen
        MOV     R2,#`?<Constant "AT+CWMODE=3\\r\\n">` & 0xff
        MOV     R3,#(`?<Constant "AT+CWMODE=3\\r\\n">` >> 8) & 0xff
        LCALL   ?Subroutine6 & 0xFFFF
??CrossCallReturnLabel_18:
        MOV     R2,#`?<Constant "AT+CWMODE=3\\r\\n">` & 0xff
        MOV     R3,#(`?<Constant "AT+CWMODE=3\\r\\n">` >> 8) & 0xff
        MOV     R1,#0x1
        LCALL   ??HalUARTWrite?relay
//  115       HalUARTWrite(0,"Set WiFi ModuleAP+STA..\r\n",25);
        ; Setup parameters for call to function HalUARTWrite
        MOV     R4,#0x19
        MOV     R5,#0x0
        MOV     R2,#`?<Constant "Set WiFi ModuleAP+STA...">` & 0xff
        MOV     R3,#(`?<Constant "Set WiFi ModuleAP+STA...">` >> 8) & 0xff
        SJMP    ??IOT_WiFiInit_4
//  116     break;
//  117       case 2:
//  118       HalUARTWrite(1,"AT+CIPMODE=1\r\n",osal_strlen("AT+CIPMODE=1\r\n"));//配置发AT命令 设置透传模式CS
??IOT_WiFiInit_2:
        ; Setup parameters for call to function HalUARTWrite
        ; Setup parameters for call to function osal_strlen
        MOV     R2,#`?<Constant "AT+CIPMODE=1\\r\\n">` & 0xff
        MOV     R3,#(`?<Constant "AT+CIPMODE=1\\r\\n">` >> 8) & 0xff
        LCALL   ?Subroutine6 & 0xFFFF
??CrossCallReturnLabel_19:
        MOV     R2,#`?<Constant "AT+CIPMODE=1\\r\\n">` & 0xff
        MOV     R3,#(`?<Constant "AT+CIPMODE=1\\r\\n">` >> 8) & 0xff
        MOV     R1,#0x1
        LCALL   ??HalUARTWrite?relay
//  119       HalUARTWrite(0,"Set WiFi Module transparent\r\n",29); //串口提示正在连接模块
        ; Setup parameters for call to function HalUARTWrite
        MOV     R4,#0x1d
        MOV     R5,#0x0
        MOV     R2,#`?<Constant "Set WiFi Module trans...">` & 0xff
        MOV     R3,#(`?<Constant "Set WiFi Module trans...">` >> 8) & 0xff
??IOT_WiFiInit_4:
        MOV     R1,#0x0
        LCALL   ??HalUARTWrite?relay
//  120     break;
//  121   }
//  122 }
??IOT_WiFiInit_3:
        LJMP    ??Subroutine8_0 & 0xFFFF
        CFI EndBlock cfiBlock13

        RSEG BANKED_CODE:CODE:NOROOT(0)
?Subroutine6:
        CFI Block cfiCond14 Using cfiCommon0
        CFI NoFunction
        CFI Conditional ??CrossCallReturnLabel_17
        CFI DPL0 Frame(CFA_SP, 4)
        CFI DPH0 Frame(CFA_SP, 5)
        CFI CFA_SP SP+-5
        CFI Block cfiCond15 Using cfiCommon0
        CFI (cfiCond15) NoFunction
        CFI (cfiCond15) Conditional ??CrossCallReturnLabel_18
        CFI (cfiCond15) DPL0 Frame(CFA_SP, 4)
        CFI (cfiCond15) DPH0 Frame(CFA_SP, 5)
        CFI (cfiCond15) CFA_SP SP+-5
        CFI Block cfiCond16 Using cfiCommon0
        CFI (cfiCond16) NoFunction
        CFI (cfiCond16) Conditional ??CrossCallReturnLabel_19
        CFI (cfiCond16) DPL0 Frame(CFA_SP, 4)
        CFI (cfiCond16) DPH0 Frame(CFA_SP, 5)
        CFI (cfiCond16) CFA_SP SP+-5
        CFI Block cfiPicker17 Using cfiCommon1
        CFI (cfiPicker17) NoFunction
        CFI (cfiPicker17) Picker
        LCALL   ??osal_strlen?relay
        MOV     A,R2
        MOV     R4,A
        MOV     A,R3
        MOV     R5,A
        RET
        CFI EndBlock cfiCond14
        CFI EndBlock cfiCond15
        CFI EndBlock cfiCond16
        CFI EndBlock cfiPicker17
//  123 
//  124 

        RSEG BANKED_CODE:CODE:NOROOT(0)
//  125 void IotConntect(void)//初始化MQTT
IotConntect:
        CFI Block cfiBlock18 Using cfiCommon0
        CFI Function IotConntect
        CODE
//  126 {
        FUNCALL IotConntect, memset
        LOCFRAME ISTACK, 0, STACK
        LOCFRAME PSTACK, 0, STACK
        LOCFRAME XSTACK, 212, STACK
        LOCFRAME IOVERLAY, 0, STATIC
        LOCFRAME DOVERLAY, 0, STATIC
        ARGFRAME ISTACK, 0, STACK
        ARGFRAME PSTACK, 0, STACK
        ARGFRAME XSTACK, 212, STACK
        ARGFRAME IOVERLAY, 0, STATIC
        ARGFRAME DOVERLAY, 0, STATIC
        FUNCALL IotConntect, sprintf
        LOCFRAME ISTACK, 0, STACK
        LOCFRAME PSTACK, 0, STACK
        LOCFRAME XSTACK, 214, STACK
        LOCFRAME IOVERLAY, 0, STATIC
        LOCFRAME DOVERLAY, 0, STATIC
        ARGFRAME ISTACK, 0, STACK
        ARGFRAME PSTACK, 0, STACK
        ARGFRAME XSTACK, 214, STACK
        ARGFRAME IOVERLAY, 0, STATIC
        ARGFRAME DOVERLAY, 0, STATIC
        FUNCALL IotConntect, osal_strlen
        LOCFRAME ISTACK, 0, STACK
        LOCFRAME PSTACK, 0, STACK
        LOCFRAME XSTACK, 210, STACK
        LOCFRAME IOVERLAY, 0, STATIC
        LOCFRAME DOVERLAY, 0, STATIC
        ARGFRAME ISTACK, 0, STACK
        ARGFRAME PSTACK, 0, STACK
        ARGFRAME XSTACK, 210, STACK
        ARGFRAME IOVERLAY, 0, STATIC
        ARGFRAME DOVERLAY, 0, STATIC
        FUNCALL IotConntect, HalUARTWrite
        LOCFRAME ISTACK, 0, STACK
        LOCFRAME PSTACK, 0, STACK
        LOCFRAME XSTACK, 210, STACK
        LOCFRAME IOVERLAY, 0, STATIC
        LOCFRAME DOVERLAY, 0, STATIC
        ARGFRAME ISTACK, 0, STACK
        ARGFRAME PSTACK, 0, STACK
        ARGFRAME XSTACK, 210, STACK
        ARGFRAME IOVERLAY, 0, STATIC
        ARGFRAME DOVERLAY, 0, STATIC
        FUNCALL IotConntect, osal_strlen
        LOCFRAME ISTACK, 0, STACK
        LOCFRAME PSTACK, 0, STACK
        LOCFRAME XSTACK, 210, STACK
        LOCFRAME IOVERLAY, 0, STATIC
        LOCFRAME DOVERLAY, 0, STATIC
        ARGFRAME ISTACK, 0, STACK
        ARGFRAME PSTACK, 0, STACK
        ARGFRAME XSTACK, 210, STACK
        ARGFRAME IOVERLAY, 0, STATIC
        ARGFRAME DOVERLAY, 0, STATIC
        FUNCALL IotConntect, HalUARTWrite
        LOCFRAME ISTACK, 0, STACK
        LOCFRAME PSTACK, 0, STACK
        LOCFRAME XSTACK, 210, STACK
        LOCFRAME IOVERLAY, 0, STATIC
        LOCFRAME DOVERLAY, 0, STATIC
        ARGFRAME ISTACK, 0, STACK
        ARGFRAME PSTACK, 0, STACK
        ARGFRAME XSTACK, 210, STACK
        ARGFRAME IOVERLAY, 0, STATIC
        ARGFRAME DOVERLAY, 0, STATIC
        FUNCALL IotConntect, HalUARTWrite
        LOCFRAME ISTACK, 0, STACK
        LOCFRAME PSTACK, 0, STACK
        LOCFRAME XSTACK, 210, STACK
        LOCFRAME IOVERLAY, 0, STATIC
        LOCFRAME DOVERLAY, 0, STATIC
        ARGFRAME ISTACK, 0, STACK
        ARGFRAME PSTACK, 0, STACK
        ARGFRAME XSTACK, 210, STACK
        ARGFRAME IOVERLAY, 0, STATIC
        ARGFRAME DOVERLAY, 0, STATIC
        FUNCALL IotConntect, HalUARTWrite
        LOCFRAME ISTACK, 0, STACK
        LOCFRAME PSTACK, 0, STACK
        LOCFRAME XSTACK, 210, STACK
        LOCFRAME IOVERLAY, 0, STATIC
        LOCFRAME DOVERLAY, 0, STATIC
        ARGFRAME ISTACK, 0, STACK
        ARGFRAME PSTACK, 0, STACK
        ARGFRAME XSTACK, 210, STACK
        ARGFRAME IOVERLAY, 0, STATIC
        ARGFRAME DOVERLAY, 0, STATIC
        FUNCALL IotConntect, memset
        LOCFRAME ISTACK, 0, STACK
        LOCFRAME PSTACK, 0, STACK
        LOCFRAME XSTACK, 212, STACK
        LOCFRAME IOVERLAY, 0, STATIC
        LOCFRAME DOVERLAY, 0, STATIC
        ARGFRAME ISTACK, 0, STACK
        ARGFRAME PSTACK, 0, STACK
        ARGFRAME XSTACK, 212, STACK
        ARGFRAME IOVERLAY, 0, STATIC
        ARGFRAME DOVERLAY, 0, STATIC
        FUNCALL IotConntect, sprintf
        LOCFRAME ISTACK, 0, STACK
        LOCFRAME PSTACK, 0, STACK
        LOCFRAME XSTACK, 210, STACK
        LOCFRAME IOVERLAY, 0, STATIC
        LOCFRAME DOVERLAY, 0, STATIC
        ARGFRAME ISTACK, 0, STACK
        ARGFRAME PSTACK, 0, STACK
        ARGFRAME XSTACK, 210, STACK
        ARGFRAME IOVERLAY, 0, STATIC
        ARGFRAME DOVERLAY, 0, STATIC
        FUNCALL IotConntect, osal_strlen
        LOCFRAME ISTACK, 0, STACK
        LOCFRAME PSTACK, 0, STACK
        LOCFRAME XSTACK, 210, STACK
        LOCFRAME IOVERLAY, 0, STATIC
        LOCFRAME DOVERLAY, 0, STATIC
        ARGFRAME ISTACK, 0, STACK
        ARGFRAME PSTACK, 0, STACK
        ARGFRAME XSTACK, 210, STACK
        ARGFRAME IOVERLAY, 0, STATIC
        ARGFRAME DOVERLAY, 0, STATIC
        FUNCALL IotConntect, HalUARTWrite
        LOCFRAME ISTACK, 0, STACK
        LOCFRAME PSTACK, 0, STACK
        LOCFRAME XSTACK, 210, STACK
        LOCFRAME IOVERLAY, 0, STATIC
        LOCFRAME DOVERLAY, 0, STATIC
        ARGFRAME ISTACK, 0, STACK
        ARGFRAME PSTACK, 0, STACK
        ARGFRAME XSTACK, 210, STACK
        ARGFRAME IOVERLAY, 0, STATIC
        ARGFRAME DOVERLAY, 0, STATIC
        MOV     A,#-0xa
        LCALL   ?BANKED_ENTER_XDATA
        CFI DPH0 load(1, XDATA, add(CFA_XSP16, literal(-1)))
        CFI DPL0 load(1, XDATA, add(CFA_XSP16, literal(-2)))
        CFI ?BRET_EXT load(1, XDATA, add(CFA_XSP16, literal(-3)))
        CFI ?RET_HIGH load(1, XDATA, add(CFA_XSP16, literal(-4)))
        CFI ?RET_LOW load(1, XDATA, add(CFA_XSP16, literal(-5)))
        CFI R7 load(1, XDATA, add(CFA_XSP16, literal(-6)))
        CFI V1 load(1, XDATA, add(CFA_XSP16, literal(-7)))
        CFI V0 load(1, XDATA, add(CFA_XSP16, literal(-8)))
        CFI VB load(1, XDATA, add(CFA_XSP16, literal(-9)))
        CFI R6 load(1, XDATA, add(CFA_XSP16, literal(-10)))
        CFI CFA_SP SP+0
        CFI CFA_XSP16 add(XSP16, 10)
        ; Saved register size: 10
        ; Auto size: 200
        MOV     A,#0x38
        LCALL   ?ALLOC_XSTACK8
        CFI CFA_XSP16 add(XSP16, 210)
//  127   unsigned char SendATData[200];
//  128     
//  129   switch(WiFiStatus.Status)
        MOV     DPTR,#WiFiStatus
        MOVX    A,@DPTR
        ADD     A,#-0x3
        JZ      ??IotConntect_0
        DEC     A
        JZ      ??IotConntect_1
        DEC     A
        JZ      ??IotConntect_2
        LJMP    ??IotConntect_3 & 0xFFFF
//  130   {
//  131      case 3:
//  132       memset(SendATData,0,200);
??IotConntect_0:
        ; Setup parameters for call to function memset
        MOV     ?V0 + 0,#-0x38
        MOV     ?V0 + 1,#0x0
        MOV     R0,#?V0 + 0
        LCALL   ?PUSH_XSTACK_I_TWO
        CFI CFA_XSP16 add(XSP16, 212)
        MOV     R4,#0x0
        MOV     R5,#0x0
        MOV     A,#0x2
        LCALL   ?XSTACK_DISP0_8
        MOV     R2,DPL
        MOV     R3,DPH
        LCALL   ??memset?relay
        MOV     A,#0x2
        LCALL   ?DEALLOC_XSTACK8
        CFI CFA_XSP16 add(XSP16, 210)
//  133       sprintf((char *)SendATData,"AT+CWJAP=\"%s\",\"%s\"\r\n",LYSSID,LYPASSWD);//链接到路由器
        ; Setup parameters for call to function sprintf
        MOV     ?V0 + 0,#`?<Constant "2233445566">` & 0xff
        MOV     ?V0 + 1,#(`?<Constant "2233445566">` >> 8) & 0xff
        MOV     R0,#?V0 + 0
        LCALL   ?PUSH_XSTACK_I_TWO
        CFI CFA_XSP16 add(XSP16, 212)
        MOV     ?V0 + 0,#`?<Constant "YanWei">` & 0xff
        MOV     ?V0 + 1,#(`?<Constant "YanWei">` >> 8) & 0xff
        MOV     R0,#?V0 + 0
        LCALL   ?PUSH_XSTACK_I_TWO
        CFI CFA_XSP16 add(XSP16, 214)
        MOV     R4,#`?<Constant "AT+CWJAP=\\"%s\\",\\"%s\\"\\r\\n">` & 0xff
        MOV     R5,#(`?<Constant "AT+CWJAP=\\"%s\\",\\"%s\\"\\r\\n">` >> 8) & 0xff
        MOV     A,#0x4
        LCALL   ?XSTACK_DISP0_8
        MOV     R2,DPL
        MOV     R3,DPH
        LCALL   ??sprintf?relay
        MOV     A,#0x4
        LCALL   ?DEALLOC_XSTACK8
        CFI CFA_XSP16 add(XSP16, 210)
//  134       HalUARTWrite(1,SendATData,osal_strlen((char *)SendATData));
        ; Setup parameters for call to function HalUARTWrite
        ; Setup parameters for call to function osal_strlen
        LCALL   ?Subroutine2 & 0xFFFF
??CrossCallReturnLabel_0:
        MOV     R1,#0x1
        LCALL   ??HalUARTWrite?relay
//  135       HalUARTWrite(0,SendATData,osal_strlen((char *)SendATData));
        ; Setup parameters for call to function HalUARTWrite
        ; Setup parameters for call to function osal_strlen
        LCALL   ?Subroutine2 & 0xFFFF
??CrossCallReturnLabel_1:
        MOV     R1,#0x0
        LCALL   ??HalUARTWrite?relay
//  136       HalUARTWrite(0,"Connect To WiFi Route...\r\n",26);
        ; Setup parameters for call to function HalUARTWrite
        MOV     R4,#0x1a
        MOV     R5,#0x0
        MOV     R2,#`?<Constant "Connect To WiFi Route...">` & 0xff
        MOV     R3,#(`?<Constant "Connect To WiFi Route...">` >> 8) & 0xff
        MOV     R1,#0x0
        SJMP    ??IotConntect_4
//  137       break;
//  138     case 4:
//  139       HalUARTWrite(1,"AT+CIPSTART=\"TCP\",\"183.230.40.33\",80\r\n",sizeof("AT+CIPSTART=\"TCP\",\"183.230.40.33\",80\r\n"));//设置登录到MQTT服务器
??IotConntect_1:
        ; Setup parameters for call to function HalUARTWrite
        MOV     R4,#0x27
        MOV     R5,#0x0
        MOV     R2,#`?<Constant "AT+CIPSTART=\\"TCP\\",\\"18...">` & 0xff
        MOV     R3,#(`?<Constant "AT+CIPSTART=\\"TCP\\",\\"18...">` >> 8) & 0xff
        SJMP    ??CrossCallReturnLabel_2
//  140       break;
//  141     case 5:
//  142       memset(SendATData,0,200);
??IotConntect_2:
        ; Setup parameters for call to function memset
        MOV     ?V0 + 0,#-0x38
        MOV     ?V0 + 1,#0x0
        MOV     R0,#?V0 + 0
        LCALL   ?PUSH_XSTACK_I_TWO
        CFI CFA_XSP16 add(XSP16, 212)
        MOV     R4,#0x0
        MOV     R5,#0x0
        MOV     A,#0x2
        LCALL   ?XSTACK_DISP0_8
        MOV     R2,DPL
        MOV     R3,DPH
        LCALL   ??memset?relay
        MOV     A,#0x2
        LCALL   ?DEALLOC_XSTACK8
        CFI CFA_XSP16 add(XSP16, 210)
//  143       sprintf((char *)SendATData,"AT+CIPSEND\r\n");
        ; Setup parameters for call to function sprintf
        MOV     R4,#`?<Constant "AT+CIPSEND\\r\\n">` & 0xff
        MOV     R5,#(`?<Constant "AT+CIPSEND\\r\\n">` >> 8) & 0xff
        MOV     DPL,?XSP + 0
        MOV     DPH,?XSP + 1
        MOV     R2,DPL
        MOV     R3,DPH
        LCALL   ??sprintf?relay
//  144       HalUARTWrite(1,SendATData,osal_strlen((char *)SendATData));//设置登录
        ; Setup parameters for call to function HalUARTWrite
        ; Setup parameters for call to function osal_strlen
        LCALL   ?Subroutine2 & 0xFFFF
??CrossCallReturnLabel_2:
        MOV     R1,#0x1
??IotConntect_4:
        LCALL   ??HalUARTWrite?relay
//  145       break;  
//  146   }
//  147 }
??IotConntect_3:
        MOV     A,#-0x38
        LCALL   ?DEALLOC_XSTACK8
        CFI CFA_XSP16 add(XSP16, 10)
        LJMP    ?Subroutine1 & 0xFFFF
        CFI EndBlock cfiBlock18

        RSEG BANKED_CODE:CODE:NOROOT(0)
?Subroutine2:
        CFI Block cfiCond19 Using cfiCommon0
        CFI NoFunction
        CFI Conditional ??CrossCallReturnLabel_0
        CFI R6 load(1, XDATA, add(CFA_XSP16, literal(-10)))
        CFI VB load(1, XDATA, add(CFA_XSP16, literal(-9)))
        CFI V0 load(1, XDATA, add(CFA_XSP16, literal(-8)))
        CFI V1 load(1, XDATA, add(CFA_XSP16, literal(-7)))
        CFI R7 load(1, XDATA, add(CFA_XSP16, literal(-6)))
        CFI ?RET_LOW load(1, XDATA, add(CFA_XSP16, literal(-5)))
        CFI ?RET_HIGH load(1, XDATA, add(CFA_XSP16, literal(-4)))
        CFI ?BRET_EXT load(1, XDATA, add(CFA_XSP16, literal(-3)))
        CFI DPL0 load(1, XDATA, add(CFA_XSP16, literal(-2)))
        CFI DPH0 load(1, XDATA, add(CFA_XSP16, literal(-1)))
        CFI CFA_SP SP+0
        CFI CFA_XSP16 add(XSP16, 210)
        CFI Block cfiCond20 Using cfiCommon0
        CFI (cfiCond20) NoFunction
        CFI (cfiCond20) Conditional ??CrossCallReturnLabel_1
        CFI (cfiCond20) R6 load(1, XDATA, add(CFA_XSP16, literal(-10)))
        CFI (cfiCond20) VB load(1, XDATA, add(CFA_XSP16, literal(-9)))
        CFI (cfiCond20) V0 load(1, XDATA, add(CFA_XSP16, literal(-8)))
        CFI (cfiCond20) V1 load(1, XDATA, add(CFA_XSP16, literal(-7)))
        CFI (cfiCond20) R7 load(1, XDATA, add(CFA_XSP16, literal(-6)))
        CFI (cfiCond20) ?RET_LOW load(1, XDATA, add(CFA_XSP16, literal(-5)))
        CFI (cfiCond20) ?RET_HIGH load(1, XDATA, add(CFA_XSP16, literal(-4)))
        CFI (cfiCond20) ?BRET_EXT load(1, XDATA, add(CFA_XSP16, literal(-3)))
        CFI (cfiCond20) DPL0 load(1, XDATA, add(CFA_XSP16, literal(-2)))
        CFI (cfiCond20) DPH0 load(1, XDATA, add(CFA_XSP16, literal(-1)))
        CFI (cfiCond20) CFA_SP SP+0
        CFI (cfiCond20) CFA_XSP16 add(XSP16, 210)
        CFI Block cfiCond21 Using cfiCommon0
        CFI (cfiCond21) NoFunction
        CFI (cfiCond21) Conditional ??CrossCallReturnLabel_2
        CFI (cfiCond21) R6 load(1, XDATA, add(CFA_XSP16, literal(-10)))
        CFI (cfiCond21) VB load(1, XDATA, add(CFA_XSP16, literal(-9)))
        CFI (cfiCond21) V0 load(1, XDATA, add(CFA_XSP16, literal(-8)))
        CFI (cfiCond21) V1 load(1, XDATA, add(CFA_XSP16, literal(-7)))
        CFI (cfiCond21) R7 load(1, XDATA, add(CFA_XSP16, literal(-6)))
        CFI (cfiCond21) ?RET_LOW load(1, XDATA, add(CFA_XSP16, literal(-5)))
        CFI (cfiCond21) ?RET_HIGH load(1, XDATA, add(CFA_XSP16, literal(-4)))
        CFI (cfiCond21) ?BRET_EXT load(1, XDATA, add(CFA_XSP16, literal(-3)))
        CFI (cfiCond21) DPL0 load(1, XDATA, add(CFA_XSP16, literal(-2)))
        CFI (cfiCond21) DPH0 load(1, XDATA, add(CFA_XSP16, literal(-1)))
        CFI (cfiCond21) CFA_SP SP+0
        CFI (cfiCond21) CFA_XSP16 add(XSP16, 210)
        CFI Block cfiPicker22 Using cfiCommon1
        CFI (cfiPicker22) NoFunction
        CFI (cfiPicker22) Picker
        MOV     DPL,?XSP + 0
        MOV     DPH,?XSP + 1
        MOV     R2,DPL
        MOV     R3,DPH
        LCALL   ??osal_strlen?relay
        MOV     A,R2
        MOV     R4,A
        MOV     A,R3
        MOV     R5,A
        MOV     DPL,?XSP + 0
        MOV     DPH,?XSP + 1
        MOV     R2,DPL
        MOV     R3,DPH
        RET
        CFI EndBlock cfiCond19
        CFI EndBlock cfiCond20
        CFI EndBlock cfiCond21
        CFI EndBlock cfiPicker22
//  148 
//  149 

        RSEG BANKED_CODE:CODE:NOROOT(0)
//  150 void IOT_RecdataPut(void)//对IOT返回的数据内容进行解析
IOT_RecdataPut:
        CFI Block cfiBlock23 Using cfiCommon0
        CFI Function IOT_RecdataPut
        CODE
//  151 { 
        FUNCALL IOT_RecdataPut, strstr
        LOCFRAME ISTACK, 0, STACK
        LOCFRAME PSTACK, 0, STACK
        LOCFRAME XSTACK, 10, STACK
        LOCFRAME IOVERLAY, 0, STATIC
        LOCFRAME DOVERLAY, 0, STATIC
        ARGFRAME ISTACK, 0, STACK
        ARGFRAME PSTACK, 0, STACK
        ARGFRAME XSTACK, 10, STACK
        ARGFRAME IOVERLAY, 0, STATIC
        ARGFRAME DOVERLAY, 0, STATIC
        FUNCALL IOT_RecdataPut, LCD_P8x16Str
        LOCFRAME ISTACK, 0, STACK
        LOCFRAME PSTACK, 0, STACK
        LOCFRAME XSTACK, 10, STACK
        LOCFRAME IOVERLAY, 0, STATIC
        LOCFRAME DOVERLAY, 0, STATIC
        ARGFRAME ISTACK, 0, STACK
        ARGFRAME PSTACK, 0, STACK
        ARGFRAME XSTACK, 10, STACK
        ARGFRAME IOVERLAY, 0, STATIC
        ARGFRAME DOVERLAY, 0, STATIC
        FUNCALL IOT_RecdataPut, strstr
        LOCFRAME ISTACK, 0, STACK
        LOCFRAME PSTACK, 0, STACK
        LOCFRAME XSTACK, 10, STACK
        LOCFRAME IOVERLAY, 0, STATIC
        LOCFRAME DOVERLAY, 0, STATIC
        ARGFRAME ISTACK, 0, STACK
        ARGFRAME PSTACK, 0, STACK
        ARGFRAME XSTACK, 10, STACK
        ARGFRAME IOVERLAY, 0, STATIC
        ARGFRAME DOVERLAY, 0, STATIC
        FUNCALL IOT_RecdataPut, LCD_P8x16Str
        LOCFRAME ISTACK, 0, STACK
        LOCFRAME PSTACK, 0, STACK
        LOCFRAME XSTACK, 10, STACK
        LOCFRAME IOVERLAY, 0, STATIC
        LOCFRAME DOVERLAY, 0, STATIC
        ARGFRAME ISTACK, 0, STACK
        ARGFRAME PSTACK, 0, STACK
        ARGFRAME XSTACK, 10, STACK
        ARGFRAME IOVERLAY, 0, STATIC
        ARGFRAME DOVERLAY, 0, STATIC
        FUNCALL IOT_RecdataPut, strstr
        LOCFRAME ISTACK, 0, STACK
        LOCFRAME PSTACK, 0, STACK
        LOCFRAME XSTACK, 10, STACK
        LOCFRAME IOVERLAY, 0, STATIC
        LOCFRAME DOVERLAY, 0, STATIC
        ARGFRAME ISTACK, 0, STACK
        ARGFRAME PSTACK, 0, STACK
        ARGFRAME XSTACK, 10, STACK
        ARGFRAME IOVERLAY, 0, STATIC
        ARGFRAME DOVERLAY, 0, STATIC
        FUNCALL IOT_RecdataPut, LCD_P8x16Str
        LOCFRAME ISTACK, 0, STACK
        LOCFRAME PSTACK, 0, STACK
        LOCFRAME XSTACK, 10, STACK
        LOCFRAME IOVERLAY, 0, STATIC
        LOCFRAME DOVERLAY, 0, STATIC
        ARGFRAME ISTACK, 0, STACK
        ARGFRAME PSTACK, 0, STACK
        ARGFRAME XSTACK, 10, STACK
        ARGFRAME IOVERLAY, 0, STATIC
        ARGFRAME DOVERLAY, 0, STATIC
        FUNCALL IOT_RecdataPut, strstr
        LOCFRAME ISTACK, 0, STACK
        LOCFRAME PSTACK, 0, STACK
        LOCFRAME XSTACK, 10, STACK
        LOCFRAME IOVERLAY, 0, STATIC
        LOCFRAME DOVERLAY, 0, STATIC
        ARGFRAME ISTACK, 0, STACK
        ARGFRAME PSTACK, 0, STACK
        ARGFRAME XSTACK, 10, STACK
        ARGFRAME IOVERLAY, 0, STATIC
        ARGFRAME DOVERLAY, 0, STATIC
        FUNCALL IOT_RecdataPut, LCD_P8x16Str
        LOCFRAME ISTACK, 0, STACK
        LOCFRAME PSTACK, 0, STACK
        LOCFRAME XSTACK, 10, STACK
        LOCFRAME IOVERLAY, 0, STATIC
        LOCFRAME DOVERLAY, 0, STATIC
        ARGFRAME ISTACK, 0, STACK
        ARGFRAME PSTACK, 0, STACK
        ARGFRAME XSTACK, 10, STACK
        ARGFRAME IOVERLAY, 0, STATIC
        ARGFRAME DOVERLAY, 0, STATIC
        FUNCALL IOT_RecdataPut, strstr
        LOCFRAME ISTACK, 0, STACK
        LOCFRAME PSTACK, 0, STACK
        LOCFRAME XSTACK, 10, STACK
        LOCFRAME IOVERLAY, 0, STATIC
        LOCFRAME DOVERLAY, 0, STATIC
        ARGFRAME ISTACK, 0, STACK
        ARGFRAME PSTACK, 0, STACK
        ARGFRAME XSTACK, 10, STACK
        ARGFRAME IOVERLAY, 0, STATIC
        ARGFRAME DOVERLAY, 0, STATIC
        FUNCALL IOT_RecdataPut, LCD_P8x16Str
        LOCFRAME ISTACK, 0, STACK
        LOCFRAME PSTACK, 0, STACK
        LOCFRAME XSTACK, 10, STACK
        LOCFRAME IOVERLAY, 0, STATIC
        LOCFRAME DOVERLAY, 0, STATIC
        ARGFRAME ISTACK, 0, STACK
        ARGFRAME PSTACK, 0, STACK
        ARGFRAME XSTACK, 10, STACK
        ARGFRAME IOVERLAY, 0, STATIC
        ARGFRAME DOVERLAY, 0, STATIC
        FUNCALL IOT_RecdataPut, strstr
        LOCFRAME ISTACK, 0, STACK
        LOCFRAME PSTACK, 0, STACK
        LOCFRAME XSTACK, 10, STACK
        LOCFRAME IOVERLAY, 0, STATIC
        LOCFRAME DOVERLAY, 0, STATIC
        ARGFRAME ISTACK, 0, STACK
        ARGFRAME PSTACK, 0, STACK
        ARGFRAME XSTACK, 10, STACK
        ARGFRAME IOVERLAY, 0, STATIC
        ARGFRAME DOVERLAY, 0, STATIC
        FUNCALL IOT_RecdataPut, LCD_P8x16Str
        LOCFRAME ISTACK, 0, STACK
        LOCFRAME PSTACK, 0, STACK
        LOCFRAME XSTACK, 10, STACK
        LOCFRAME IOVERLAY, 0, STATIC
        LOCFRAME DOVERLAY, 0, STATIC
        ARGFRAME ISTACK, 0, STACK
        ARGFRAME PSTACK, 0, STACK
        ARGFRAME XSTACK, 10, STACK
        ARGFRAME IOVERLAY, 0, STATIC
        ARGFRAME DOVERLAY, 0, STATIC
        FUNCALL IOT_RecdataPut, LCD_P8x16Str
        LOCFRAME ISTACK, 0, STACK
        LOCFRAME PSTACK, 0, STACK
        LOCFRAME XSTACK, 10, STACK
        LOCFRAME IOVERLAY, 0, STATIC
        LOCFRAME DOVERLAY, 0, STATIC
        ARGFRAME ISTACK, 0, STACK
        ARGFRAME PSTACK, 0, STACK
        ARGFRAME XSTACK, 10, STACK
        ARGFRAME IOVERLAY, 0, STATIC
        ARGFRAME DOVERLAY, 0, STATIC
        MOV     A,#-0xa
        LCALL   ?BANKED_ENTER_XDATA
        CFI DPH0 load(1, XDATA, add(CFA_XSP16, literal(-1)))
        CFI DPL0 load(1, XDATA, add(CFA_XSP16, literal(-2)))
        CFI ?BRET_EXT load(1, XDATA, add(CFA_XSP16, literal(-3)))
        CFI ?RET_HIGH load(1, XDATA, add(CFA_XSP16, literal(-4)))
        CFI ?RET_LOW load(1, XDATA, add(CFA_XSP16, literal(-5)))
        CFI R7 load(1, XDATA, add(CFA_XSP16, literal(-6)))
        CFI V1 load(1, XDATA, add(CFA_XSP16, literal(-7)))
        CFI V0 load(1, XDATA, add(CFA_XSP16, literal(-8)))
        CFI VB load(1, XDATA, add(CFA_XSP16, literal(-9)))
        CFI R6 load(1, XDATA, add(CFA_XSP16, literal(-10)))
        CFI CFA_SP SP+0
        CFI CFA_XSP16 add(XSP16, 10)
        ; Saved register size: 10
        ; Auto size: 0
//  152   char *strx;
//  153  switch(WiFiStatus.Status)
        MOV     DPTR,#WiFiStatus
        MOVX    A,@DPTR
        JZ      ??IOT_RecdataPut_0
        DEC     A
        JZ      ??IOT_RecdataPut_1
        DEC     A
        JZ      ??IOT_RecdataPut_2
        DEC     A
        JZ      ??IOT_RecdataPut_3
        DEC     A
        JZ      ??IOT_RecdataPut_4
        DEC     A
        JZ      ??IOT_RecdataPut_5
        SJMP    ??IOT_RecdataPut_6
//  154   {
//  155     case 0:
//  156       strx=strstr((const char*)uartbuf2,(const char*)"OK");//返回OK，表明通讯正常c s t x
//  157        if(strx)
??IOT_RecdataPut_0:
        ; Setup parameters for call to function strstr
        LCALL   ?Subroutine3 & 0xFFFF
??CrossCallReturnLabel_3:
        JZ      ??IOT_RecdataPut_6
//  158        {
//  159          LCD_P8x16Str(0, 4, "CONNET MODULE OK");
        ; Setup parameters for call to function LCD_P8x16Str
        MOV     R4,#`?<Constant "CONNET MODULE OK">` & 0xff
        MOV     R5,#(`?<Constant "CONNET MODULE OK">` >> 8) & 0xff
        LCALL   ?Subroutine4 & 0xFFFF
//  160          WiFiStatus.Status=1;
//  161        }
??CrossCallReturnLabel_9:
        MOV     A,#0x1
        SJMP    ??IOT_RecdataPut_7
//  162       break;
//  163       
//  164       case 1:
//  165       strx=strstr((const char*)uartbuf2,(const char*)"OK");//设置下模式3
//  166        if(strx)
??IOT_RecdataPut_1:
        ; Setup parameters for call to function strstr
        LCALL   ?Subroutine3 & 0xFFFF
??CrossCallReturnLabel_4:
        JZ      ??IOT_RecdataPut_6
//  167        {
//  168          LCD_P8x16Str(0, 4, "SET MODE 3  [OK]");
        ; Setup parameters for call to function LCD_P8x16Str
        MOV     R4,#`?<Constant "SET MODE 3  [OK]">` & 0xff
        MOV     R5,#(`?<Constant "SET MODE 3  [OK]">` >> 8) & 0xff
        LCALL   ?Subroutine4 & 0xFFFF
//  169          WiFiStatus.Status=2;
//  170        }
??CrossCallReturnLabel_10:
        MOV     A,#0x2
        SJMP    ??IOT_RecdataPut_7
//  171        break;
//  172          
//  173       case 2:
//  174       strx=strstr((const char*)uartbuf2,(const char*)"OK");//设置模块为 透传模式 发送json到oennet
//  175        if(strx)
??IOT_RecdataPut_2:
        ; Setup parameters for call to function strstr
        LCALL   ?Subroutine3 & 0xFFFF
??CrossCallReturnLabel_5:
        JZ      ??IOT_RecdataPut_6
//  176        {
//  177          LCD_P8x16Str(0, 4, "TRANSPARNET [OK]");
        ; Setup parameters for call to function LCD_P8x16Str
        MOV     R4,#`?<Constant "TRANSPARNET [OK]">` & 0xff
        MOV     R5,#(`?<Constant "TRANSPARNET [OK]">` >> 8) & 0xff
        LCALL   ?Subroutine4 & 0xFFFF
//  178          WiFiStatus.Status=3;
//  179        } 
??CrossCallReturnLabel_11:
        MOV     A,#0x3
        SJMP    ??IOT_RecdataPut_7
//  180       break;  
//  181     
//  182        case 3://判断登录服务器情况
//  183         strx=strstr((const char*)uartbuf2,(const char*)"OK");//CSTX链接到路由器反馈，要上外网必须让WiFi去链接到路由器
//  184        if(strx)
??IOT_RecdataPut_3:
        ; Setup parameters for call to function strstr
        LCALL   ?Subroutine3 & 0xFFFF
??CrossCallReturnLabel_6:
        JZ      ??IOT_RecdataPut_6
//  185        {
//  186          LCD_P8x16Str(0, 4, "CONNECT Route OK");
        ; Setup parameters for call to function LCD_P8x16Str
        MOV     R4,#`?<Constant "CONNECT Route OK">` & 0xff
        MOV     R5,#(`?<Constant "CONNECT Route OK">` >> 8) & 0xff
        LCALL   ?Subroutine4 & 0xFFFF
//  187          WiFiStatus.Status=4;//此时需要发布登录
//  188        } 
??CrossCallReturnLabel_12:
        MOV     A,#0x4
        SJMP    ??IOT_RecdataPut_7
//  189       break;   
//  190     
//  191        case 4://查看登录情况返回
//  192        strx=strstr((const char*)uartbuf2,(const char*)"OK");//ONENET登录成功，可以发布订阅数据了
//  193        if(strx)
??IOT_RecdataPut_4:
        ; Setup parameters for call to function strstr
        LCALL   ?Subroutine3 & 0xFFFF
??CrossCallReturnLabel_7:
        JZ      ??IOT_RecdataPut_6
//  194        {
//  195           LCD_P8x16Str(0, 4, "CONNECT CLOUD OK");
        ; Setup parameters for call to function LCD_P8x16Str
        MOV     R4,#`?<Constant "CONNECT CLOUD OK">` & 0xff
        MOV     R5,#(`?<Constant "CONNECT CLOUD OK">` >> 8) & 0xff
        LCALL   ?Subroutine4 & 0xFFFF
//  196           WiFiStatus.Status=5;//此时就可以发数据了
//  197        } 
??CrossCallReturnLabel_13:
        MOV     A,#0x5
        SJMP    ??IOT_RecdataPut_7
//  198       break;
//  199     
//  200      case 5://查看发布数据情况
//  201      strx=strstr((const char*)uartbuf2,(const char*)"OK");//发布数据成功c s t x
//  202      if(strx)
??IOT_RecdataPut_5:
        ; Setup parameters for call to function strstr
        LCALL   ?Subroutine3 & 0xFFFF
??CrossCallReturnLabel_8:
        JZ      ??IOT_RecdataPut_8
//  203      {
//  204         LCD_P8x16Str(0, 4, "SEND CLOUD DATA.");
        ; Setup parameters for call to function LCD_P8x16Str
        MOV     R4,#`?<Constant "SEND CLOUD DATA.">` & 0xff
        MOV     R5,#(`?<Constant "SEND CLOUD DATA.">` >> 8) & 0xff
        SJMP    ??IOT_RecdataPut_9
//  205         WiFiStatus.Status=6;//此时就可以发数据了
//  206      }
//  207      else
//  208      {
//  209         LCD_P8x16Str(0, 4, "SEND CLOUD DATA*");
??IOT_RecdataPut_8:
        ; Setup parameters for call to function LCD_P8x16Str
        MOV     R4,#`?<Constant "SEND CLOUD DATA*">` & 0xff
        MOV     R5,#(`?<Constant "SEND CLOUD DATA*">` >> 8) & 0xff
//  210         WiFiStatus.Status=6;//此时就可以发数据了
//  211      }
//  212     break;
//  213   }   
??IOT_RecdataPut_9:
        LCALL   ?Subroutine4 & 0xFFFF
??CrossCallReturnLabel_14:
        MOV     A,#0x6
??IOT_RecdataPut_7:
        MOVX    @DPTR,A
//  214 }
??IOT_RecdataPut_6:
        LJMP    ?Subroutine1 & 0xFFFF
        CFI EndBlock cfiBlock23

        RSEG BANKED_CODE:CODE:NOROOT(0)
?Subroutine4:
        CFI Block cfiCond24 Using cfiCommon0
        CFI NoFunction
        CFI Conditional ??CrossCallReturnLabel_9
        CFI R6 load(1, XDATA, add(CFA_XSP16, literal(-10)))
        CFI VB load(1, XDATA, add(CFA_XSP16, literal(-9)))
        CFI V0 load(1, XDATA, add(CFA_XSP16, literal(-8)))
        CFI V1 load(1, XDATA, add(CFA_XSP16, literal(-7)))
        CFI R7 load(1, XDATA, add(CFA_XSP16, literal(-6)))
        CFI ?RET_LOW load(1, XDATA, add(CFA_XSP16, literal(-5)))
        CFI ?RET_HIGH load(1, XDATA, add(CFA_XSP16, literal(-4)))
        CFI ?BRET_EXT load(1, XDATA, add(CFA_XSP16, literal(-3)))
        CFI DPL0 load(1, XDATA, add(CFA_XSP16, literal(-2)))
        CFI DPH0 load(1, XDATA, add(CFA_XSP16, literal(-1)))
        CFI CFA_SP SP+0
        CFI CFA_XSP16 add(XSP16, 10)
        CFI Block cfiCond25 Using cfiCommon0
        CFI (cfiCond25) NoFunction
        CFI (cfiCond25) Conditional ??CrossCallReturnLabel_10
        CFI (cfiCond25) R6 load(1, XDATA, add(CFA_XSP16, literal(-10)))
        CFI (cfiCond25) VB load(1, XDATA, add(CFA_XSP16, literal(-9)))
        CFI (cfiCond25) V0 load(1, XDATA, add(CFA_XSP16, literal(-8)))
        CFI (cfiCond25) V1 load(1, XDATA, add(CFA_XSP16, literal(-7)))
        CFI (cfiCond25) R7 load(1, XDATA, add(CFA_XSP16, literal(-6)))
        CFI (cfiCond25) ?RET_LOW load(1, XDATA, add(CFA_XSP16, literal(-5)))
        CFI (cfiCond25) ?RET_HIGH load(1, XDATA, add(CFA_XSP16, literal(-4)))
        CFI (cfiCond25) ?BRET_EXT load(1, XDATA, add(CFA_XSP16, literal(-3)))
        CFI (cfiCond25) DPL0 load(1, XDATA, add(CFA_XSP16, literal(-2)))
        CFI (cfiCond25) DPH0 load(1, XDATA, add(CFA_XSP16, literal(-1)))
        CFI (cfiCond25) CFA_SP SP+0
        CFI (cfiCond25) CFA_XSP16 add(XSP16, 10)
        CFI Block cfiCond26 Using cfiCommon0
        CFI (cfiCond26) NoFunction
        CFI (cfiCond26) Conditional ??CrossCallReturnLabel_11
        CFI (cfiCond26) R6 load(1, XDATA, add(CFA_XSP16, literal(-10)))
        CFI (cfiCond26) VB load(1, XDATA, add(CFA_XSP16, literal(-9)))
        CFI (cfiCond26) V0 load(1, XDATA, add(CFA_XSP16, literal(-8)))
        CFI (cfiCond26) V1 load(1, XDATA, add(CFA_XSP16, literal(-7)))
        CFI (cfiCond26) R7 load(1, XDATA, add(CFA_XSP16, literal(-6)))
        CFI (cfiCond26) ?RET_LOW load(1, XDATA, add(CFA_XSP16, literal(-5)))
        CFI (cfiCond26) ?RET_HIGH load(1, XDATA, add(CFA_XSP16, literal(-4)))
        CFI (cfiCond26) ?BRET_EXT load(1, XDATA, add(CFA_XSP16, literal(-3)))
        CFI (cfiCond26) DPL0 load(1, XDATA, add(CFA_XSP16, literal(-2)))
        CFI (cfiCond26) DPH0 load(1, XDATA, add(CFA_XSP16, literal(-1)))
        CFI (cfiCond26) CFA_SP SP+0
        CFI (cfiCond26) CFA_XSP16 add(XSP16, 10)
        CFI Block cfiCond27 Using cfiCommon0
        CFI (cfiCond27) NoFunction
        CFI (cfiCond27) Conditional ??CrossCallReturnLabel_12
        CFI (cfiCond27) R6 load(1, XDATA, add(CFA_XSP16, literal(-10)))
        CFI (cfiCond27) VB load(1, XDATA, add(CFA_XSP16, literal(-9)))
        CFI (cfiCond27) V0 load(1, XDATA, add(CFA_XSP16, literal(-8)))
        CFI (cfiCond27) V1 load(1, XDATA, add(CFA_XSP16, literal(-7)))
        CFI (cfiCond27) R7 load(1, XDATA, add(CFA_XSP16, literal(-6)))
        CFI (cfiCond27) ?RET_LOW load(1, XDATA, add(CFA_XSP16, literal(-5)))
        CFI (cfiCond27) ?RET_HIGH load(1, XDATA, add(CFA_XSP16, literal(-4)))
        CFI (cfiCond27) ?BRET_EXT load(1, XDATA, add(CFA_XSP16, literal(-3)))
        CFI (cfiCond27) DPL0 load(1, XDATA, add(CFA_XSP16, literal(-2)))
        CFI (cfiCond27) DPH0 load(1, XDATA, add(CFA_XSP16, literal(-1)))
        CFI (cfiCond27) CFA_SP SP+0
        CFI (cfiCond27) CFA_XSP16 add(XSP16, 10)
        CFI Block cfiCond28 Using cfiCommon0
        CFI (cfiCond28) NoFunction
        CFI (cfiCond28) Conditional ??CrossCallReturnLabel_13
        CFI (cfiCond28) R6 load(1, XDATA, add(CFA_XSP16, literal(-10)))
        CFI (cfiCond28) VB load(1, XDATA, add(CFA_XSP16, literal(-9)))
        CFI (cfiCond28) V0 load(1, XDATA, add(CFA_XSP16, literal(-8)))
        CFI (cfiCond28) V1 load(1, XDATA, add(CFA_XSP16, literal(-7)))
        CFI (cfiCond28) R7 load(1, XDATA, add(CFA_XSP16, literal(-6)))
        CFI (cfiCond28) ?RET_LOW load(1, XDATA, add(CFA_XSP16, literal(-5)))
        CFI (cfiCond28) ?RET_HIGH load(1, XDATA, add(CFA_XSP16, literal(-4)))
        CFI (cfiCond28) ?BRET_EXT load(1, XDATA, add(CFA_XSP16, literal(-3)))
        CFI (cfiCond28) DPL0 load(1, XDATA, add(CFA_XSP16, literal(-2)))
        CFI (cfiCond28) DPH0 load(1, XDATA, add(CFA_XSP16, literal(-1)))
        CFI (cfiCond28) CFA_SP SP+0
        CFI (cfiCond28) CFA_XSP16 add(XSP16, 10)
        CFI Block cfiCond29 Using cfiCommon0
        CFI (cfiCond29) NoFunction
        CFI (cfiCond29) Conditional ??CrossCallReturnLabel_14
        CFI (cfiCond29) R6 load(1, XDATA, add(CFA_XSP16, literal(-10)))
        CFI (cfiCond29) VB load(1, XDATA, add(CFA_XSP16, literal(-9)))
        CFI (cfiCond29) V0 load(1, XDATA, add(CFA_XSP16, literal(-8)))
        CFI (cfiCond29) V1 load(1, XDATA, add(CFA_XSP16, literal(-7)))
        CFI (cfiCond29) R7 load(1, XDATA, add(CFA_XSP16, literal(-6)))
        CFI (cfiCond29) ?RET_LOW load(1, XDATA, add(CFA_XSP16, literal(-5)))
        CFI (cfiCond29) ?RET_HIGH load(1, XDATA, add(CFA_XSP16, literal(-4)))
        CFI (cfiCond29) ?BRET_EXT load(1, XDATA, add(CFA_XSP16, literal(-3)))
        CFI (cfiCond29) DPL0 load(1, XDATA, add(CFA_XSP16, literal(-2)))
        CFI (cfiCond29) DPH0 load(1, XDATA, add(CFA_XSP16, literal(-1)))
        CFI (cfiCond29) CFA_SP SP+0
        CFI (cfiCond29) CFA_XSP16 add(XSP16, 10)
        CFI Block cfiPicker30 Using cfiCommon1
        CFI (cfiPicker30) NoFunction
        CFI (cfiPicker30) Picker
        MOV     R2,#0x4
        MOV     R1,#0x0
        LCALL   ??LCD_P8x16Str?relay
        MOV     DPTR,#WiFiStatus
        RET
        CFI EndBlock cfiCond24
        CFI EndBlock cfiCond25
        CFI EndBlock cfiCond26
        CFI EndBlock cfiCond27
        CFI EndBlock cfiCond28
        CFI EndBlock cfiCond29
        CFI EndBlock cfiPicker30

        RSEG BANKED_CODE:CODE:NOROOT(0)
?Subroutine3:
        CFI Block cfiCond31 Using cfiCommon0
        CFI NoFunction
        CFI Conditional ??CrossCallReturnLabel_3
        CFI R6 load(1, XDATA, add(CFA_XSP16, literal(-10)))
        CFI VB load(1, XDATA, add(CFA_XSP16, literal(-9)))
        CFI V0 load(1, XDATA, add(CFA_XSP16, literal(-8)))
        CFI V1 load(1, XDATA, add(CFA_XSP16, literal(-7)))
        CFI R7 load(1, XDATA, add(CFA_XSP16, literal(-6)))
        CFI ?RET_LOW load(1, XDATA, add(CFA_XSP16, literal(-5)))
        CFI ?RET_HIGH load(1, XDATA, add(CFA_XSP16, literal(-4)))
        CFI ?BRET_EXT load(1, XDATA, add(CFA_XSP16, literal(-3)))
        CFI DPL0 load(1, XDATA, add(CFA_XSP16, literal(-2)))
        CFI DPH0 load(1, XDATA, add(CFA_XSP16, literal(-1)))
        CFI CFA_SP SP+0
        CFI CFA_XSP16 add(XSP16, 10)
        CFI Block cfiCond32 Using cfiCommon0
        CFI (cfiCond32) NoFunction
        CFI (cfiCond32) Conditional ??CrossCallReturnLabel_4
        CFI (cfiCond32) R6 load(1, XDATA, add(CFA_XSP16, literal(-10)))
        CFI (cfiCond32) VB load(1, XDATA, add(CFA_XSP16, literal(-9)))
        CFI (cfiCond32) V0 load(1, XDATA, add(CFA_XSP16, literal(-8)))
        CFI (cfiCond32) V1 load(1, XDATA, add(CFA_XSP16, literal(-7)))
        CFI (cfiCond32) R7 load(1, XDATA, add(CFA_XSP16, literal(-6)))
        CFI (cfiCond32) ?RET_LOW load(1, XDATA, add(CFA_XSP16, literal(-5)))
        CFI (cfiCond32) ?RET_HIGH load(1, XDATA, add(CFA_XSP16, literal(-4)))
        CFI (cfiCond32) ?BRET_EXT load(1, XDATA, add(CFA_XSP16, literal(-3)))
        CFI (cfiCond32) DPL0 load(1, XDATA, add(CFA_XSP16, literal(-2)))
        CFI (cfiCond32) DPH0 load(1, XDATA, add(CFA_XSP16, literal(-1)))
        CFI (cfiCond32) CFA_SP SP+0
        CFI (cfiCond32) CFA_XSP16 add(XSP16, 10)
        CFI Block cfiCond33 Using cfiCommon0
        CFI (cfiCond33) NoFunction
        CFI (cfiCond33) Conditional ??CrossCallReturnLabel_5
        CFI (cfiCond33) R6 load(1, XDATA, add(CFA_XSP16, literal(-10)))
        CFI (cfiCond33) VB load(1, XDATA, add(CFA_XSP16, literal(-9)))
        CFI (cfiCond33) V0 load(1, XDATA, add(CFA_XSP16, literal(-8)))
        CFI (cfiCond33) V1 load(1, XDATA, add(CFA_XSP16, literal(-7)))
        CFI (cfiCond33) R7 load(1, XDATA, add(CFA_XSP16, literal(-6)))
        CFI (cfiCond33) ?RET_LOW load(1, XDATA, add(CFA_XSP16, literal(-5)))
        CFI (cfiCond33) ?RET_HIGH load(1, XDATA, add(CFA_XSP16, literal(-4)))
        CFI (cfiCond33) ?BRET_EXT load(1, XDATA, add(CFA_XSP16, literal(-3)))
        CFI (cfiCond33) DPL0 load(1, XDATA, add(CFA_XSP16, literal(-2)))
        CFI (cfiCond33) DPH0 load(1, XDATA, add(CFA_XSP16, literal(-1)))
        CFI (cfiCond33) CFA_SP SP+0
        CFI (cfiCond33) CFA_XSP16 add(XSP16, 10)
        CFI Block cfiCond34 Using cfiCommon0
        CFI (cfiCond34) NoFunction
        CFI (cfiCond34) Conditional ??CrossCallReturnLabel_6
        CFI (cfiCond34) R6 load(1, XDATA, add(CFA_XSP16, literal(-10)))
        CFI (cfiCond34) VB load(1, XDATA, add(CFA_XSP16, literal(-9)))
        CFI (cfiCond34) V0 load(1, XDATA, add(CFA_XSP16, literal(-8)))
        CFI (cfiCond34) V1 load(1, XDATA, add(CFA_XSP16, literal(-7)))
        CFI (cfiCond34) R7 load(1, XDATA, add(CFA_XSP16, literal(-6)))
        CFI (cfiCond34) ?RET_LOW load(1, XDATA, add(CFA_XSP16, literal(-5)))
        CFI (cfiCond34) ?RET_HIGH load(1, XDATA, add(CFA_XSP16, literal(-4)))
        CFI (cfiCond34) ?BRET_EXT load(1, XDATA, add(CFA_XSP16, literal(-3)))
        CFI (cfiCond34) DPL0 load(1, XDATA, add(CFA_XSP16, literal(-2)))
        CFI (cfiCond34) DPH0 load(1, XDATA, add(CFA_XSP16, literal(-1)))
        CFI (cfiCond34) CFA_SP SP+0
        CFI (cfiCond34) CFA_XSP16 add(XSP16, 10)
        CFI Block cfiCond35 Using cfiCommon0
        CFI (cfiCond35) NoFunction
        CFI (cfiCond35) Conditional ??CrossCallReturnLabel_7
        CFI (cfiCond35) R6 load(1, XDATA, add(CFA_XSP16, literal(-10)))
        CFI (cfiCond35) VB load(1, XDATA, add(CFA_XSP16, literal(-9)))
        CFI (cfiCond35) V0 load(1, XDATA, add(CFA_XSP16, literal(-8)))
        CFI (cfiCond35) V1 load(1, XDATA, add(CFA_XSP16, literal(-7)))
        CFI (cfiCond35) R7 load(1, XDATA, add(CFA_XSP16, literal(-6)))
        CFI (cfiCond35) ?RET_LOW load(1, XDATA, add(CFA_XSP16, literal(-5)))
        CFI (cfiCond35) ?RET_HIGH load(1, XDATA, add(CFA_XSP16, literal(-4)))
        CFI (cfiCond35) ?BRET_EXT load(1, XDATA, add(CFA_XSP16, literal(-3)))
        CFI (cfiCond35) DPL0 load(1, XDATA, add(CFA_XSP16, literal(-2)))
        CFI (cfiCond35) DPH0 load(1, XDATA, add(CFA_XSP16, literal(-1)))
        CFI (cfiCond35) CFA_SP SP+0
        CFI (cfiCond35) CFA_XSP16 add(XSP16, 10)
        CFI Block cfiCond36 Using cfiCommon0
        CFI (cfiCond36) NoFunction
        CFI (cfiCond36) Conditional ??CrossCallReturnLabel_8
        CFI (cfiCond36) R6 load(1, XDATA, add(CFA_XSP16, literal(-10)))
        CFI (cfiCond36) VB load(1, XDATA, add(CFA_XSP16, literal(-9)))
        CFI (cfiCond36) V0 load(1, XDATA, add(CFA_XSP16, literal(-8)))
        CFI (cfiCond36) V1 load(1, XDATA, add(CFA_XSP16, literal(-7)))
        CFI (cfiCond36) R7 load(1, XDATA, add(CFA_XSP16, literal(-6)))
        CFI (cfiCond36) ?RET_LOW load(1, XDATA, add(CFA_XSP16, literal(-5)))
        CFI (cfiCond36) ?RET_HIGH load(1, XDATA, add(CFA_XSP16, literal(-4)))
        CFI (cfiCond36) ?BRET_EXT load(1, XDATA, add(CFA_XSP16, literal(-3)))
        CFI (cfiCond36) DPL0 load(1, XDATA, add(CFA_XSP16, literal(-2)))
        CFI (cfiCond36) DPH0 load(1, XDATA, add(CFA_XSP16, literal(-1)))
        CFI (cfiCond36) CFA_SP SP+0
        CFI (cfiCond36) CFA_XSP16 add(XSP16, 10)
        CFI Block cfiPicker37 Using cfiCommon1
        CFI (cfiPicker37) NoFunction
        CFI (cfiPicker37) Picker
        MOV     R4,#`?<Constant "OK">` & 0xff
        MOV     R5,#(`?<Constant "OK">` >> 8) & 0xff
        MOV     R2,#uartbuf2 & 0xff
        MOV     R3,#(uartbuf2 >> 8) & 0xff
        LCALL   ??strstr?relay
        MOV     ?V0 + 1,R3
        MOV     A,R2
        ORL     A,?V0 + 1
        RET
        CFI EndBlock cfiCond31
        CFI EndBlock cfiCond32
        CFI EndBlock cfiCond33
        CFI EndBlock cfiCond34
        CFI EndBlock cfiCond35
        CFI EndBlock cfiCond36
        CFI EndBlock cfiPicker37

        RSEG BANK_RELAYS:CODE:REORDER:NOROOT(0)
??UartInitPort0?relay:
        LCALL   ?BDISPATCH
        DATA
        DC24    UartInitPort0

        RSEG BANK_RELAYS:CODE:REORDER:NOROOT(0)
??rxCB?relay:
        LCALL   ?BDISPATCH
        DATA
        DC24    rxCB

        RSEG BANK_RELAYS:CODE:REORDER:NOROOT(0)
??UartInitPort1?relay:
        LCALL   ?BDISPATCH
        DATA
        DC24    UartInitPort1

        RSEG BANK_RELAYS:CODE:REORDER:NOROOT(0)
??SerialCallBack?relay:
        LCALL   ?BDISPATCH
        DATA
        DC24    SerialCallBack

        RSEG BANK_RELAYS:CODE:REORDER:NOROOT(0)
??IOT_WiFiInit?relay:
        LCALL   ?BDISPATCH
        DATA
        DC24    IOT_WiFiInit

        RSEG BANK_RELAYS:CODE:REORDER:NOROOT(0)
??IotConntect?relay:
        LCALL   ?BDISPATCH
        DATA
        DC24    IotConntect

        RSEG BANK_RELAYS:CODE:REORDER:NOROOT(0)
??IOT_RecdataPut?relay:
        LCALL   ?BDISPATCH
        DATA
        DC24    IOT_RecdataPut

        RSEG XDATA_ROM_C:CONST:REORDER:NOROOT(0)
        DATA8
`?<Constant {0}>`:
        DB 0
        DB 0, 0, 0, 0, 0, 0, 0, 0
        DB 0, 0, 0, 0, 0, 0, 0, 0
        DB 0, 0, 0, 0, 0, 0, 0, 0
        DB 0, 0, 0, 0, 0, 0, 0, 0
        DB 0, 0, 0, 0, 0, 0, 0, 0
        DB 0, 0, 0, 0, 0, 0, 0, 0
        DB 0, 0, 0, 0, 0, 0, 0, 0
        DB 0, 0, 0, 0, 0, 0, 0, 0
        DB 0, 0, 0, 0, 0, 0, 0, 0
        DB 0, 0, 0, 0, 0, 0, 0, 0
        DB 0, 0, 0, 0, 0, 0, 0, 0
        DB 0, 0, 0, 0, 0, 0, 0, 0
        DB 0, 0, 0, 0, 0, 0, 0, 0
        DB 0, 0, 0, 0, 0, 0, 0, 0
        DB 0, 0, 0, 0, 0, 0, 0, 0
        DB 0, 0, 0, 0, 0, 0, 0

        RSEG XDATA_ROM_C:CONST:REORDER:NOROOT(0)
        DATA8
`?<Constant "AT\\r\\n">`:
        DB "AT\015\012"

        RSEG XDATA_ROM_C:CONST:REORDER:NOROOT(0)
        DATA8
`?<Constant "\\r\\n**CSGSM Connect To ...">`:
        DB "\015\012**CSGSM Connect To MODULE...\015\012"

        RSEG XDATA_ROM_C:CONST:REORDER:NOROOT(0)
        DATA8
`?<Constant "AT+CWMODE=3\\r\\n">`:
        DB "AT+CWMODE=3\015\012"

        RSEG XDATA_ROM_C:CONST:REORDER:NOROOT(0)
        DATA8
`?<Constant "Set WiFi ModuleAP+STA...">`:
        DB "Set WiFi ModuleAP+STA..\015\012"

        RSEG XDATA_ROM_C:CONST:REORDER:NOROOT(0)
        DATA8
`?<Constant "AT+CIPMODE=1\\r\\n">`:
        DB "AT+CIPMODE=1\015\012"

        RSEG XDATA_ROM_C:CONST:REORDER:NOROOT(0)
        DATA8
`?<Constant "Set WiFi Module trans...">`:
        DB "Set WiFi Module transparent\015\012"

        RSEG XDATA_ROM_C:CONST:REORDER:NOROOT(0)
        DATA8
`?<Constant "AT+CWJAP=\\"%s\\",\\"%s\\"\\r\\n">`:
        DB "AT+CWJAP=\"%s\",\"%s\"\015\012"

        RSEG XDATA_ROM_C:CONST:REORDER:NOROOT(0)
        DATA8
`?<Constant "YanWei">`:
        DB "YanWei"

        RSEG XDATA_ROM_C:CONST:REORDER:NOROOT(0)
        DATA8
`?<Constant "2233445566">`:
        DB "2233445566"

        RSEG XDATA_ROM_C:CONST:REORDER:NOROOT(0)
        DATA8
`?<Constant "Connect To WiFi Route...">`:
        DB "Connect To WiFi Route...\015\012"

        RSEG XDATA_ROM_C:CONST:REORDER:NOROOT(0)
        DATA8
`?<Constant "AT+CIPSTART=\\"TCP\\",\\"18...">`:
        DB "AT+CIPSTART=\"TCP\",\"183.230.40.33\",80\015\012"

        RSEG XDATA_ROM_C:CONST:REORDER:NOROOT(0)
        DATA8
`?<Constant "AT+CIPSEND\\r\\n">`:
        DB "AT+CIPSEND\015\012"

        RSEG XDATA_ROM_C:CONST:REORDER:NOROOT(0)
        DATA8
`?<Constant "OK">`:
        DB "OK"

        RSEG XDATA_ROM_C:CONST:REORDER:NOROOT(0)
        DATA8
`?<Constant "CONNET MODULE OK">`:
        DB "CONNET MODULE OK"

        RSEG XDATA_ROM_C:CONST:REORDER:NOROOT(0)
        DATA8
`?<Constant "SET MODE 3  [OK]">`:
        DB "SET MODE 3  [OK]"

        RSEG XDATA_ROM_C:CONST:REORDER:NOROOT(0)
        DATA8
`?<Constant "TRANSPARNET [OK]">`:
        DB "TRANSPARNET [OK]"

        RSEG XDATA_ROM_C:CONST:REORDER:NOROOT(0)
        DATA8
`?<Constant "CONNECT Route OK">`:
        DB "CONNECT Route OK"

        RSEG XDATA_ROM_C:CONST:REORDER:NOROOT(0)
        DATA8
`?<Constant "CONNECT CLOUD OK">`:
        DB "CONNECT CLOUD OK"

        RSEG XDATA_ROM_C:CONST:REORDER:NOROOT(0)
        DATA8
`?<Constant "SEND CLOUD DATA.">`:
        DB "SEND CLOUD DATA."

        RSEG XDATA_ROM_C:CONST:REORDER:NOROOT(0)
        DATA8
`?<Constant "SEND CLOUD DATA*">`:
        DB "SEND CLOUD DATA*"

        END
// 
// 857 bytes in segment BANKED_CODE
//  42 bytes in segment BANK_RELAYS
// 491 bytes in segment XDATA_ROM_C
// 233 bytes in segment XDATA_Z
// 
// 899 bytes of CODE  memory
// 491 bytes of CONST memory
// 233 bytes of XDATA memory
//
//Errors: none
//Warnings: none
